
AthenX.bin:     file format elf32-i386


Disassembly of section .text:

00100000 <__kernel_text_section_start>:
  100000:	02 b0 ad 1b 03 00    	add    0x31bad(%eax),%dh
  100006:	00 00                	add    %al,(%eax)
  100008:	fb                   	sti    
  100009:	4f                   	dec    %edi
  10000a:	52                   	push   %edx
  10000b:	e4                   	.byte 0xe4

0010000c <rdtsc>:
  10000c:	55                   	push   %ebp
  10000d:	89 e5                	mov    %esp,%ebp
  10000f:	57                   	push   %edi
  100010:	56                   	push   %esi
  100011:	53                   	push   %ebx
  100012:	83 ec 1c             	sub    $0x1c,%esp
  100015:	0f 31                	rdtsc  
  100017:	89 45 ec             	mov    %eax,-0x14(%ebp)
  10001a:	89 55 e8             	mov    %edx,-0x18(%ebp)
  10001d:	8b 45 e8             	mov    -0x18(%ebp),%eax
  100020:	ba 00 00 00 00       	mov    $0x0,%edx
  100025:	89 c2                	mov    %eax,%edx
  100027:	b8 00 00 00 00       	mov    $0x0,%eax
  10002c:	8b 75 ec             	mov    -0x14(%ebp),%esi
  10002f:	bf 00 00 00 00       	mov    $0x0,%edi
  100034:	89 45 d8             	mov    %eax,-0x28(%ebp)
  100037:	89 55 dc             	mov    %edx,-0x24(%ebp)
  10003a:	09 f0                	or     %esi,%eax
  10003c:	89 c1                	mov    %eax,%ecx
  10003e:	8b 45 dc             	mov    -0x24(%ebp),%eax
  100041:	09 f8                	or     %edi,%eax
  100043:	89 c3                	mov    %eax,%ebx
  100045:	89 c8                	mov    %ecx,%eax
  100047:	89 da                	mov    %ebx,%edx
  100049:	83 c4 1c             	add    $0x1c,%esp
  10004c:	5b                   	pop    %ebx
  10004d:	5e                   	pop    %esi
  10004e:	5f                   	pop    %edi
  10004f:	5d                   	pop    %ebp
  100050:	c3                   	ret    

00100051 <read_memory_address>:
  100051:	55                   	push   %ebp
  100052:	89 e5                	mov    %esp,%ebp
  100054:	8b 45 08             	mov    0x8(%ebp),%eax
  100057:	8b 00                	mov    (%eax),%eax
  100059:	5d                   	pop    %ebp
  10005a:	c3                   	ret    

0010005b <srand>:
  10005b:	55                   	push   %ebp
  10005c:	89 e5                	mov    %esp,%ebp
  10005e:	56                   	push   %esi
  10005f:	53                   	push   %ebx
  100060:	83 ec 30             	sub    $0x30,%esp
  100063:	8d 45 08             	lea    0x8(%ebp),%eax
  100066:	89 45 f4             	mov    %eax,-0xc(%ebp)
  100069:	c7 45 f0 0c 00 10 00 	movl   $0x10000c,-0x10(%ebp)
  100070:	ff 75 f4             	push   -0xc(%ebp)
  100073:	e8 d9 ff ff ff       	call   100051 <read_memory_address>
  100078:	83 c4 04             	add    $0x4,%esp
  10007b:	89 45 ec             	mov    %eax,-0x14(%ebp)
  10007e:	ff 75 f0             	push   -0x10(%ebp)
  100081:	e8 cb ff ff ff       	call   100051 <read_memory_address>
  100086:	83 c4 04             	add    $0x4,%esp
  100089:	89 45 e8             	mov    %eax,-0x18(%ebp)
  10008c:	8d 45 c8             	lea    -0x38(%ebp),%eax
  10008f:	83 ec 0c             	sub    $0xc,%esp
  100092:	50                   	push   %eax
  100093:	e8 1f e9 00 00       	call   10e9b7 <get_time>
  100098:	83 c4 0c             	add    $0xc,%esp
  10009b:	e8 6c ff ff ff       	call   10000c <rdtsc>
  1000a0:	89 45 e0             	mov    %eax,-0x20(%ebp)
  1000a3:	89 55 e4             	mov    %edx,-0x1c(%ebp)
  1000a6:	8b 45 08             	mov    0x8(%ebp),%eax
  1000a9:	33 45 ec             	xor    -0x14(%ebp),%eax
  1000ac:	33 45 e8             	xor    -0x18(%ebp),%eax
  1000af:	8b 55 c8             	mov    -0x38(%ebp),%edx
  1000b2:	c1 e2 1a             	shl    $0x1a,%edx
  1000b5:	31 c2                	xor    %eax,%edx
  1000b7:	8b 45 cc             	mov    -0x34(%ebp),%eax
  1000ba:	c1 e0 14             	shl    $0x14,%eax
  1000bd:	31 c2                	xor    %eax,%edx
  1000bf:	8b 45 d0             	mov    -0x30(%ebp),%eax
  1000c2:	c1 e0 0e             	shl    $0xe,%eax
  1000c5:	31 c2                	xor    %eax,%edx
  1000c7:	8b 45 d4             	mov    -0x2c(%ebp),%eax
  1000ca:	c1 e0 08             	shl    $0x8,%eax
  1000cd:	31 c2                	xor    %eax,%edx
  1000cf:	8b 45 d8             	mov    -0x28(%ebp),%eax
  1000d2:	c1 e0 04             	shl    $0x4,%eax
  1000d5:	31 c2                	xor    %eax,%edx
  1000d7:	8b 45 dc             	mov    -0x24(%ebp),%eax
  1000da:	31 c2                	xor    %eax,%edx
  1000dc:	8b 45 e0             	mov    -0x20(%ebp),%eax
  1000df:	89 d1                	mov    %edx,%ecx
  1000e1:	31 c1                	xor    %eax,%ecx
  1000e3:	8b 45 e0             	mov    -0x20(%ebp),%eax
  1000e6:	8b 55 e4             	mov    -0x1c(%ebp),%edx
  1000e9:	89 d0                	mov    %edx,%eax
  1000eb:	31 d2                	xor    %edx,%edx
  1000ed:	89 c3                	mov    %eax,%ebx
  1000ef:	89 d6                	mov    %edx,%esi
  1000f1:	89 d8                	mov    %ebx,%eax
  1000f3:	31 c8                	xor    %ecx,%eax
  1000f5:	a3 00 c0 12 00       	mov    %eax,0x12c000
  1000fa:	90                   	nop
  1000fb:	8d 65 f8             	lea    -0x8(%ebp),%esp
  1000fe:	5b                   	pop    %ebx
  1000ff:	5e                   	pop    %esi
  100100:	5d                   	pop    %ebp
  100101:	c3                   	ret    

00100102 <rand>:
  100102:	55                   	push   %ebp
  100103:	89 e5                	mov    %esp,%ebp
  100105:	a1 00 c0 12 00       	mov    0x12c000,%eax
  10010a:	69 c0 6d 4e c6 41    	imul   $0x41c64e6d,%eax,%eax
  100110:	05 39 30 00 00       	add    $0x3039,%eax
  100115:	25 ff ff ff 7f       	and    $0x7fffffff,%eax
  10011a:	a3 00 c0 12 00       	mov    %eax,0x12c000
  10011f:	a1 00 c0 12 00       	mov    0x12c000,%eax
  100124:	5d                   	pop    %ebp
  100125:	c3                   	ret    

00100126 <gdt_set_entry>:
  100126:	55                   	push   %ebp
  100127:	89 e5                	mov    %esp,%ebp
  100129:	83 ec 18             	sub    $0x18,%esp
  10012c:	8b 55 14             	mov    0x14(%ebp),%edx
  10012f:	8b 45 18             	mov    0x18(%ebp),%eax
  100132:	88 55 ec             	mov    %dl,-0x14(%ebp)
  100135:	88 45 e8             	mov    %al,-0x18(%ebp)
  100138:	8b 45 08             	mov    0x8(%ebp),%eax
  10013b:	c1 e0 03             	shl    $0x3,%eax
  10013e:	05 20 e0 13 00       	add    $0x13e020,%eax
  100143:	89 45 fc             	mov    %eax,-0x4(%ebp)
  100146:	8b 45 10             	mov    0x10(%ebp),%eax
  100149:	89 c2                	mov    %eax,%edx
  10014b:	8b 45 fc             	mov    -0x4(%ebp),%eax
  10014e:	66 89 10             	mov    %dx,(%eax)
  100151:	8b 45 0c             	mov    0xc(%ebp),%eax
  100154:	89 c2                	mov    %eax,%edx
  100156:	8b 45 fc             	mov    -0x4(%ebp),%eax
  100159:	66 89 50 02          	mov    %dx,0x2(%eax)
  10015d:	8b 45 0c             	mov    0xc(%ebp),%eax
  100160:	c1 e8 10             	shr    $0x10,%eax
  100163:	89 c2                	mov    %eax,%edx
  100165:	8b 45 fc             	mov    -0x4(%ebp),%eax
  100168:	88 50 04             	mov    %dl,0x4(%eax)
  10016b:	8b 45 fc             	mov    -0x4(%ebp),%eax
  10016e:	0f b6 55 ec          	movzbl -0x14(%ebp),%edx
  100172:	88 50 05             	mov    %dl,0x5(%eax)
  100175:	8b 45 10             	mov    0x10(%ebp),%eax
  100178:	c1 e8 10             	shr    $0x10,%eax
  10017b:	83 e0 0f             	and    $0xf,%eax
  10017e:	89 c2                	mov    %eax,%edx
  100180:	8b 45 fc             	mov    -0x4(%ebp),%eax
  100183:	88 50 06             	mov    %dl,0x6(%eax)
  100186:	8b 45 fc             	mov    -0x4(%ebp),%eax
  100189:	0f b6 40 06          	movzbl 0x6(%eax),%eax
  10018d:	89 c2                	mov    %eax,%edx
  10018f:	0f b6 45 e8          	movzbl -0x18(%ebp),%eax
  100193:	83 e0 f0             	and    $0xfffffff0,%eax
  100196:	09 d0                	or     %edx,%eax
  100198:	89 c2                	mov    %eax,%edx
  10019a:	8b 45 fc             	mov    -0x4(%ebp),%eax
  10019d:	88 50 06             	mov    %dl,0x6(%eax)
  1001a0:	8b 45 0c             	mov    0xc(%ebp),%eax
  1001a3:	c1 e8 18             	shr    $0x18,%eax
  1001a6:	89 c2                	mov    %eax,%edx
  1001a8:	8b 45 fc             	mov    -0x4(%ebp),%eax
  1001ab:	88 50 07             	mov    %dl,0x7(%eax)
  1001ae:	90                   	nop
  1001af:	c9                   	leave  
  1001b0:	c3                   	ret    

001001b1 <gdt_init>:
  1001b1:	55                   	push   %ebp
  1001b2:	89 e5                	mov    %esp,%ebp
  1001b4:	83 ec 08             	sub    $0x8,%esp
  1001b7:	66 c7 05 00 e0 13 00 	movw   $0x3f,0x13e000
  1001be:	3f 00 
  1001c0:	b8 20 e0 13 00       	mov    $0x13e020,%eax
  1001c5:	a3 02 e0 13 00       	mov    %eax,0x13e002
  1001ca:	6a 00                	push   $0x0
  1001cc:	6a 00                	push   $0x0
  1001ce:	6a 00                	push   $0x0
  1001d0:	6a 00                	push   $0x0
  1001d2:	6a 00                	push   $0x0
  1001d4:	e8 4d ff ff ff       	call   100126 <gdt_set_entry>
  1001d9:	83 c4 14             	add    $0x14,%esp
  1001dc:	68 cf 00 00 00       	push   $0xcf
  1001e1:	68 9a 00 00 00       	push   $0x9a
  1001e6:	6a ff                	push   $0xffffffff
  1001e8:	6a 00                	push   $0x0
  1001ea:	6a 01                	push   $0x1
  1001ec:	e8 35 ff ff ff       	call   100126 <gdt_set_entry>
  1001f1:	83 c4 14             	add    $0x14,%esp
  1001f4:	68 cf 00 00 00       	push   $0xcf
  1001f9:	68 92 00 00 00       	push   $0x92
  1001fe:	6a ff                	push   $0xffffffff
  100200:	6a 00                	push   $0x0
  100202:	6a 02                	push   $0x2
  100204:	e8 1d ff ff ff       	call   100126 <gdt_set_entry>
  100209:	83 c4 14             	add    $0x14,%esp
  10020c:	68 cf 00 00 00       	push   $0xcf
  100211:	68 fa 00 00 00       	push   $0xfa
  100216:	6a ff                	push   $0xffffffff
  100218:	6a 00                	push   $0x0
  10021a:	6a 03                	push   $0x3
  10021c:	e8 05 ff ff ff       	call   100126 <gdt_set_entry>
  100221:	83 c4 14             	add    $0x14,%esp
  100224:	68 cf 00 00 00       	push   $0xcf
  100229:	68 f2 00 00 00       	push   $0xf2
  10022e:	6a ff                	push   $0xffffffff
  100230:	6a 00                	push   $0x0
  100232:	6a 04                	push   $0x4
  100234:	e8 ed fe ff ff       	call   100126 <gdt_set_entry>
  100239:	83 c4 14             	add    $0x14,%esp
  10023c:	b8 00 e0 13 00       	mov    $0x13e000,%eax
  100241:	83 ec 0c             	sub    $0xc,%esp
  100244:	50                   	push   %eax
  100245:	e8 26 3e 02 00       	call   124070 <load_gdt>
  10024a:	83 c4 10             	add    $0x10,%esp
  10024d:	90                   	nop
  10024e:	c9                   	leave  
  10024f:	c3                   	ret    

00100250 <idt_set_entry>:
  100250:	55                   	push   %ebp
  100251:	89 e5                	mov    %esp,%ebp
  100253:	83 ec 18             	sub    $0x18,%esp
  100256:	8b 45 10             	mov    0x10(%ebp),%eax
  100259:	8b 55 14             	mov    0x14(%ebp),%edx
  10025c:	66 89 45 ec          	mov    %ax,-0x14(%ebp)
  100260:	89 d0                	mov    %edx,%eax
  100262:	88 45 e8             	mov    %al,-0x18(%ebp)
  100265:	8b 45 08             	mov    0x8(%ebp),%eax
  100268:	c1 e0 03             	shl    $0x3,%eax
  10026b:	05 60 e0 13 00       	add    $0x13e060,%eax
  100270:	89 45 fc             	mov    %eax,-0x4(%ebp)
  100273:	8b 45 0c             	mov    0xc(%ebp),%eax
  100276:	89 c2                	mov    %eax,%edx
  100278:	8b 45 fc             	mov    -0x4(%ebp),%eax
  10027b:	66 89 10             	mov    %dx,(%eax)
  10027e:	8b 45 fc             	mov    -0x4(%ebp),%eax
  100281:	0f b7 55 ec          	movzwl -0x14(%ebp),%edx
  100285:	66 89 50 02          	mov    %dx,0x2(%eax)
  100289:	8b 45 fc             	mov    -0x4(%ebp),%eax
  10028c:	c6 40 04 00          	movb   $0x0,0x4(%eax)
  100290:	0f b6 45 e8          	movzbl -0x18(%ebp),%eax
  100294:	83 c8 60             	or     $0x60,%eax
  100297:	89 c2                	mov    %eax,%edx
  100299:	8b 45 fc             	mov    -0x4(%ebp),%eax
  10029c:	88 50 05             	mov    %dl,0x5(%eax)
  10029f:	8b 45 0c             	mov    0xc(%ebp),%eax
  1002a2:	c1 e8 10             	shr    $0x10,%eax
  1002a5:	89 c2                	mov    %eax,%edx
  1002a7:	8b 45 fc             	mov    -0x4(%ebp),%eax
  1002aa:	66 89 50 06          	mov    %dx,0x6(%eax)
  1002ae:	90                   	nop
  1002af:	c9                   	leave  
  1002b0:	c3                   	ret    

001002b1 <idt_init>:
  1002b1:	55                   	push   %ebp
  1002b2:	89 e5                	mov    %esp,%ebp
  1002b4:	83 ec 08             	sub    $0x8,%esp
  1002b7:	b8 60 e0 13 00       	mov    $0x13e060,%eax
  1002bc:	a3 62 e8 13 00       	mov    %eax,0x13e862
  1002c1:	66 c7 05 60 e8 13 00 	movw   $0x7ff,0x13e860
  1002c8:	ff 07 
  1002ca:	e8 c4 15 00 00       	call   101893 <pic8259_init>
  1002cf:	b8 e5 40 12 00       	mov    $0x1240e5,%eax
  1002d4:	68 8e 00 00 00       	push   $0x8e
  1002d9:	6a 08                	push   $0x8
  1002db:	50                   	push   %eax
  1002dc:	6a 00                	push   $0x0
  1002de:	e8 6d ff ff ff       	call   100250 <idt_set_entry>
  1002e3:	83 c4 10             	add    $0x10,%esp
  1002e6:	b8 ec 40 12 00       	mov    $0x1240ec,%eax
  1002eb:	68 8e 00 00 00       	push   $0x8e
  1002f0:	6a 08                	push   $0x8
  1002f2:	50                   	push   %eax
  1002f3:	6a 01                	push   $0x1
  1002f5:	e8 56 ff ff ff       	call   100250 <idt_set_entry>
  1002fa:	83 c4 10             	add    $0x10,%esp
  1002fd:	b8 f3 40 12 00       	mov    $0x1240f3,%eax
  100302:	68 8e 00 00 00       	push   $0x8e
  100307:	6a 08                	push   $0x8
  100309:	50                   	push   %eax
  10030a:	6a 02                	push   $0x2
  10030c:	e8 3f ff ff ff       	call   100250 <idt_set_entry>
  100311:	83 c4 10             	add    $0x10,%esp
  100314:	b8 fa 40 12 00       	mov    $0x1240fa,%eax
  100319:	68 8e 00 00 00       	push   $0x8e
  10031e:	6a 08                	push   $0x8
  100320:	50                   	push   %eax
  100321:	6a 03                	push   $0x3
  100323:	e8 28 ff ff ff       	call   100250 <idt_set_entry>
  100328:	83 c4 10             	add    $0x10,%esp
  10032b:	b8 01 41 12 00       	mov    $0x124101,%eax
  100330:	68 8e 00 00 00       	push   $0x8e
  100335:	6a 08                	push   $0x8
  100337:	50                   	push   %eax
  100338:	6a 04                	push   $0x4
  10033a:	e8 11 ff ff ff       	call   100250 <idt_set_entry>
  10033f:	83 c4 10             	add    $0x10,%esp
  100342:	b8 08 41 12 00       	mov    $0x124108,%eax
  100347:	68 8e 00 00 00       	push   $0x8e
  10034c:	6a 08                	push   $0x8
  10034e:	50                   	push   %eax
  10034f:	6a 05                	push   $0x5
  100351:	e8 fa fe ff ff       	call   100250 <idt_set_entry>
  100356:	83 c4 10             	add    $0x10,%esp
  100359:	b8 0f 41 12 00       	mov    $0x12410f,%eax
  10035e:	68 8e 00 00 00       	push   $0x8e
  100363:	6a 08                	push   $0x8
  100365:	50                   	push   %eax
  100366:	6a 06                	push   $0x6
  100368:	e8 e3 fe ff ff       	call   100250 <idt_set_entry>
  10036d:	83 c4 10             	add    $0x10,%esp
  100370:	b8 16 41 12 00       	mov    $0x124116,%eax
  100375:	68 8e 00 00 00       	push   $0x8e
  10037a:	6a 08                	push   $0x8
  10037c:	50                   	push   %eax
  10037d:	6a 07                	push   $0x7
  10037f:	e8 cc fe ff ff       	call   100250 <idt_set_entry>
  100384:	83 c4 10             	add    $0x10,%esp
  100387:	b8 1d 41 12 00       	mov    $0x12411d,%eax
  10038c:	68 8e 00 00 00       	push   $0x8e
  100391:	6a 08                	push   $0x8
  100393:	50                   	push   %eax
  100394:	6a 08                	push   $0x8
  100396:	e8 b5 fe ff ff       	call   100250 <idt_set_entry>
  10039b:	83 c4 10             	add    $0x10,%esp
  10039e:	b8 22 41 12 00       	mov    $0x124122,%eax
  1003a3:	68 8e 00 00 00       	push   $0x8e
  1003a8:	6a 08                	push   $0x8
  1003aa:	50                   	push   %eax
  1003ab:	6a 09                	push   $0x9
  1003ad:	e8 9e fe ff ff       	call   100250 <idt_set_entry>
  1003b2:	83 c4 10             	add    $0x10,%esp
  1003b5:	b8 29 41 12 00       	mov    $0x124129,%eax
  1003ba:	68 8e 00 00 00       	push   $0x8e
  1003bf:	6a 08                	push   $0x8
  1003c1:	50                   	push   %eax
  1003c2:	6a 0a                	push   $0xa
  1003c4:	e8 87 fe ff ff       	call   100250 <idt_set_entry>
  1003c9:	83 c4 10             	add    $0x10,%esp
  1003cc:	b8 2e 41 12 00       	mov    $0x12412e,%eax
  1003d1:	68 8e 00 00 00       	push   $0x8e
  1003d6:	6a 08                	push   $0x8
  1003d8:	50                   	push   %eax
  1003d9:	6a 0b                	push   $0xb
  1003db:	e8 70 fe ff ff       	call   100250 <idt_set_entry>
  1003e0:	83 c4 10             	add    $0x10,%esp
  1003e3:	b8 33 41 12 00       	mov    $0x124133,%eax
  1003e8:	68 8e 00 00 00       	push   $0x8e
  1003ed:	6a 08                	push   $0x8
  1003ef:	50                   	push   %eax
  1003f0:	6a 0c                	push   $0xc
  1003f2:	e8 59 fe ff ff       	call   100250 <idt_set_entry>
  1003f7:	83 c4 10             	add    $0x10,%esp
  1003fa:	b8 38 41 12 00       	mov    $0x124138,%eax
  1003ff:	68 8e 00 00 00       	push   $0x8e
  100404:	6a 08                	push   $0x8
  100406:	50                   	push   %eax
  100407:	6a 0d                	push   $0xd
  100409:	e8 42 fe ff ff       	call   100250 <idt_set_entry>
  10040e:	83 c4 10             	add    $0x10,%esp
  100411:	b8 3d 41 12 00       	mov    $0x12413d,%eax
  100416:	68 8e 00 00 00       	push   $0x8e
  10041b:	6a 08                	push   $0x8
  10041d:	50                   	push   %eax
  10041e:	6a 0e                	push   $0xe
  100420:	e8 2b fe ff ff       	call   100250 <idt_set_entry>
  100425:	83 c4 10             	add    $0x10,%esp
  100428:	b8 45 41 12 00       	mov    $0x124145,%eax
  10042d:	68 8e 00 00 00       	push   $0x8e
  100432:	6a 08                	push   $0x8
  100434:	50                   	push   %eax
  100435:	6a 0f                	push   $0xf
  100437:	e8 14 fe ff ff       	call   100250 <idt_set_entry>
  10043c:	83 c4 10             	add    $0x10,%esp
  10043f:	b8 4f 41 12 00       	mov    $0x12414f,%eax
  100444:	68 8e 00 00 00       	push   $0x8e
  100449:	6a 08                	push   $0x8
  10044b:	50                   	push   %eax
  10044c:	6a 10                	push   $0x10
  10044e:	e8 fd fd ff ff       	call   100250 <idt_set_entry>
  100453:	83 c4 10             	add    $0x10,%esp
  100456:	b8 59 41 12 00       	mov    $0x124159,%eax
  10045b:	68 8e 00 00 00       	push   $0x8e
  100460:	6a 08                	push   $0x8
  100462:	50                   	push   %eax
  100463:	6a 11                	push   $0x11
  100465:	e8 e6 fd ff ff       	call   100250 <idt_set_entry>
  10046a:	83 c4 10             	add    $0x10,%esp
  10046d:	b8 63 41 12 00       	mov    $0x124163,%eax
  100472:	68 8e 00 00 00       	push   $0x8e
  100477:	6a 08                	push   $0x8
  100479:	50                   	push   %eax
  10047a:	6a 12                	push   $0x12
  10047c:	e8 cf fd ff ff       	call   100250 <idt_set_entry>
  100481:	83 c4 10             	add    $0x10,%esp
  100484:	b8 6d 41 12 00       	mov    $0x12416d,%eax
  100489:	68 8e 00 00 00       	push   $0x8e
  10048e:	6a 08                	push   $0x8
  100490:	50                   	push   %eax
  100491:	6a 13                	push   $0x13
  100493:	e8 b8 fd ff ff       	call   100250 <idt_set_entry>
  100498:	83 c4 10             	add    $0x10,%esp
  10049b:	b8 77 41 12 00       	mov    $0x124177,%eax
  1004a0:	68 8e 00 00 00       	push   $0x8e
  1004a5:	6a 08                	push   $0x8
  1004a7:	50                   	push   %eax
  1004a8:	6a 14                	push   $0x14
  1004aa:	e8 a1 fd ff ff       	call   100250 <idt_set_entry>
  1004af:	83 c4 10             	add    $0x10,%esp
  1004b2:	b8 81 41 12 00       	mov    $0x124181,%eax
  1004b7:	68 8e 00 00 00       	push   $0x8e
  1004bc:	6a 08                	push   $0x8
  1004be:	50                   	push   %eax
  1004bf:	6a 15                	push   $0x15
  1004c1:	e8 8a fd ff ff       	call   100250 <idt_set_entry>
  1004c6:	83 c4 10             	add    $0x10,%esp
  1004c9:	b8 8b 41 12 00       	mov    $0x12418b,%eax
  1004ce:	68 8e 00 00 00       	push   $0x8e
  1004d3:	6a 08                	push   $0x8
  1004d5:	50                   	push   %eax
  1004d6:	6a 16                	push   $0x16
  1004d8:	e8 73 fd ff ff       	call   100250 <idt_set_entry>
  1004dd:	83 c4 10             	add    $0x10,%esp
  1004e0:	b8 95 41 12 00       	mov    $0x124195,%eax
  1004e5:	68 8e 00 00 00       	push   $0x8e
  1004ea:	6a 08                	push   $0x8
  1004ec:	50                   	push   %eax
  1004ed:	6a 17                	push   $0x17
  1004ef:	e8 5c fd ff ff       	call   100250 <idt_set_entry>
  1004f4:	83 c4 10             	add    $0x10,%esp
  1004f7:	b8 9f 41 12 00       	mov    $0x12419f,%eax
  1004fc:	68 8e 00 00 00       	push   $0x8e
  100501:	6a 08                	push   $0x8
  100503:	50                   	push   %eax
  100504:	6a 18                	push   $0x18
  100506:	e8 45 fd ff ff       	call   100250 <idt_set_entry>
  10050b:	83 c4 10             	add    $0x10,%esp
  10050e:	b8 a9 41 12 00       	mov    $0x1241a9,%eax
  100513:	68 8e 00 00 00       	push   $0x8e
  100518:	6a 08                	push   $0x8
  10051a:	50                   	push   %eax
  10051b:	6a 19                	push   $0x19
  10051d:	e8 2e fd ff ff       	call   100250 <idt_set_entry>
  100522:	83 c4 10             	add    $0x10,%esp
  100525:	b8 b3 41 12 00       	mov    $0x1241b3,%eax
  10052a:	68 8e 00 00 00       	push   $0x8e
  10052f:	6a 08                	push   $0x8
  100531:	50                   	push   %eax
  100532:	6a 1a                	push   $0x1a
  100534:	e8 17 fd ff ff       	call   100250 <idt_set_entry>
  100539:	83 c4 10             	add    $0x10,%esp
  10053c:	b8 bd 41 12 00       	mov    $0x1241bd,%eax
  100541:	68 8e 00 00 00       	push   $0x8e
  100546:	6a 08                	push   $0x8
  100548:	50                   	push   %eax
  100549:	6a 1b                	push   $0x1b
  10054b:	e8 00 fd ff ff       	call   100250 <idt_set_entry>
  100550:	83 c4 10             	add    $0x10,%esp
  100553:	b8 c7 41 12 00       	mov    $0x1241c7,%eax
  100558:	68 8e 00 00 00       	push   $0x8e
  10055d:	6a 08                	push   $0x8
  10055f:	50                   	push   %eax
  100560:	6a 1c                	push   $0x1c
  100562:	e8 e9 fc ff ff       	call   100250 <idt_set_entry>
  100567:	83 c4 10             	add    $0x10,%esp
  10056a:	b8 d1 41 12 00       	mov    $0x1241d1,%eax
  10056f:	68 8e 00 00 00       	push   $0x8e
  100574:	6a 08                	push   $0x8
  100576:	50                   	push   %eax
  100577:	6a 1d                	push   $0x1d
  100579:	e8 d2 fc ff ff       	call   100250 <idt_set_entry>
  10057e:	83 c4 10             	add    $0x10,%esp
  100581:	b8 db 41 12 00       	mov    $0x1241db,%eax
  100586:	68 8e 00 00 00       	push   $0x8e
  10058b:	6a 08                	push   $0x8
  10058d:	50                   	push   %eax
  10058e:	6a 1e                	push   $0x1e
  100590:	e8 bb fc ff ff       	call   100250 <idt_set_entry>
  100595:	83 c4 10             	add    $0x10,%esp
  100598:	b8 e5 41 12 00       	mov    $0x1241e5,%eax
  10059d:	68 8e 00 00 00       	push   $0x8e
  1005a2:	6a 08                	push   $0x8
  1005a4:	50                   	push   %eax
  1005a5:	6a 1f                	push   $0x1f
  1005a7:	e8 a4 fc ff ff       	call   100250 <idt_set_entry>
  1005ac:	83 c4 10             	add    $0x10,%esp
  1005af:	b8 d7 3f 12 00       	mov    $0x123fd7,%eax
  1005b4:	68 8e 00 00 00       	push   $0x8e
  1005b9:	6a 08                	push   $0x8
  1005bb:	50                   	push   %eax
  1005bc:	6a 20                	push   $0x20
  1005be:	e8 8d fc ff ff       	call   100250 <idt_set_entry>
  1005c3:	83 c4 10             	add    $0x10,%esp
  1005c6:	b8 de 3f 12 00       	mov    $0x123fde,%eax
  1005cb:	68 8e 00 00 00       	push   $0x8e
  1005d0:	6a 08                	push   $0x8
  1005d2:	50                   	push   %eax
  1005d3:	6a 21                	push   $0x21
  1005d5:	e8 76 fc ff ff       	call   100250 <idt_set_entry>
  1005da:	83 c4 10             	add    $0x10,%esp
  1005dd:	b8 e5 3f 12 00       	mov    $0x123fe5,%eax
  1005e2:	68 8e 00 00 00       	push   $0x8e
  1005e7:	6a 08                	push   $0x8
  1005e9:	50                   	push   %eax
  1005ea:	6a 22                	push   $0x22
  1005ec:	e8 5f fc ff ff       	call   100250 <idt_set_entry>
  1005f1:	83 c4 10             	add    $0x10,%esp
  1005f4:	b8 ec 3f 12 00       	mov    $0x123fec,%eax
  1005f9:	68 8e 00 00 00       	push   $0x8e
  1005fe:	6a 08                	push   $0x8
  100600:	50                   	push   %eax
  100601:	6a 23                	push   $0x23
  100603:	e8 48 fc ff ff       	call   100250 <idt_set_entry>
  100608:	83 c4 10             	add    $0x10,%esp
  10060b:	b8 f3 3f 12 00       	mov    $0x123ff3,%eax
  100610:	68 8e 00 00 00       	push   $0x8e
  100615:	6a 08                	push   $0x8
  100617:	50                   	push   %eax
  100618:	6a 24                	push   $0x24
  10061a:	e8 31 fc ff ff       	call   100250 <idt_set_entry>
  10061f:	83 c4 10             	add    $0x10,%esp
  100622:	b8 fa 3f 12 00       	mov    $0x123ffa,%eax
  100627:	68 8e 00 00 00       	push   $0x8e
  10062c:	6a 08                	push   $0x8
  10062e:	50                   	push   %eax
  10062f:	6a 25                	push   $0x25
  100631:	e8 1a fc ff ff       	call   100250 <idt_set_entry>
  100636:	83 c4 10             	add    $0x10,%esp
  100639:	b8 01 40 12 00       	mov    $0x124001,%eax
  10063e:	68 8e 00 00 00       	push   $0x8e
  100643:	6a 08                	push   $0x8
  100645:	50                   	push   %eax
  100646:	6a 26                	push   $0x26
  100648:	e8 03 fc ff ff       	call   100250 <idt_set_entry>
  10064d:	83 c4 10             	add    $0x10,%esp
  100650:	b8 08 40 12 00       	mov    $0x124008,%eax
  100655:	68 8e 00 00 00       	push   $0x8e
  10065a:	6a 08                	push   $0x8
  10065c:	50                   	push   %eax
  10065d:	6a 27                	push   $0x27
  10065f:	e8 ec fb ff ff       	call   100250 <idt_set_entry>
  100664:	83 c4 10             	add    $0x10,%esp
  100667:	b8 0f 40 12 00       	mov    $0x12400f,%eax
  10066c:	68 8e 00 00 00       	push   $0x8e
  100671:	6a 08                	push   $0x8
  100673:	50                   	push   %eax
  100674:	6a 28                	push   $0x28
  100676:	e8 d5 fb ff ff       	call   100250 <idt_set_entry>
  10067b:	83 c4 10             	add    $0x10,%esp
  10067e:	b8 16 40 12 00       	mov    $0x124016,%eax
  100683:	68 8e 00 00 00       	push   $0x8e
  100688:	6a 08                	push   $0x8
  10068a:	50                   	push   %eax
  10068b:	6a 29                	push   $0x29
  10068d:	e8 be fb ff ff       	call   100250 <idt_set_entry>
  100692:	83 c4 10             	add    $0x10,%esp
  100695:	b8 60 43 12 00       	mov    $0x124360,%eax
  10069a:	68 8e 00 00 00       	push   $0x8e
  10069f:	6a 08                	push   $0x8
  1006a1:	50                   	push   %eax
  1006a2:	6a 2a                	push   $0x2a
  1006a4:	e8 a7 fb ff ff       	call   100250 <idt_set_entry>
  1006a9:	83 c4 10             	add    $0x10,%esp
  1006ac:	b8 24 40 12 00       	mov    $0x124024,%eax
  1006b1:	68 8e 00 00 00       	push   $0x8e
  1006b6:	6a 08                	push   $0x8
  1006b8:	50                   	push   %eax
  1006b9:	6a 2b                	push   $0x2b
  1006bb:	e8 90 fb ff ff       	call   100250 <idt_set_entry>
  1006c0:	83 c4 10             	add    $0x10,%esp
  1006c3:	b8 2b 40 12 00       	mov    $0x12402b,%eax
  1006c8:	68 8e 00 00 00       	push   $0x8e
  1006cd:	6a 08                	push   $0x8
  1006cf:	50                   	push   %eax
  1006d0:	6a 2c                	push   $0x2c
  1006d2:	e8 79 fb ff ff       	call   100250 <idt_set_entry>
  1006d7:	83 c4 10             	add    $0x10,%esp
  1006da:	b8 35 40 12 00       	mov    $0x124035,%eax
  1006df:	68 8e 00 00 00       	push   $0x8e
  1006e4:	6a 08                	push   $0x8
  1006e6:	50                   	push   %eax
  1006e7:	6a 2d                	push   $0x2d
  1006e9:	e8 62 fb ff ff       	call   100250 <idt_set_entry>
  1006ee:	83 c4 10             	add    $0x10,%esp
  1006f1:	b8 3f 40 12 00       	mov    $0x12403f,%eax
  1006f6:	68 8e 00 00 00       	push   $0x8e
  1006fb:	6a 08                	push   $0x8
  1006fd:	50                   	push   %eax
  1006fe:	6a 2e                	push   $0x2e
  100700:	e8 4b fb ff ff       	call   100250 <idt_set_entry>
  100705:	83 c4 10             	add    $0x10,%esp
  100708:	b8 49 40 12 00       	mov    $0x124049,%eax
  10070d:	68 8e 00 00 00       	push   $0x8e
  100712:	6a 08                	push   $0x8
  100714:	50                   	push   %eax
  100715:	6a 2f                	push   $0x2f
  100717:	e8 34 fb ff ff       	call   100250 <idt_set_entry>
  10071c:	83 c4 10             	add    $0x10,%esp
  10071f:	b8 ef 41 12 00       	mov    $0x1241ef,%eax
  100724:	68 8e 00 00 00       	push   $0x8e
  100729:	6a 08                	push   $0x8
  10072b:	50                   	push   %eax
  10072c:	68 80 00 00 00       	push   $0x80
  100731:	e8 1a fb ff ff       	call   100250 <idt_set_entry>
  100736:	83 c4 10             	add    $0x10,%esp
  100739:	b8 60 e8 13 00       	mov    $0x13e860,%eax
  10073e:	83 ec 0c             	sub    $0xc,%esp
  100741:	50                   	push   %eax
  100742:	e8 19 39 02 00       	call   124060 <load_idt>
  100747:	83 c4 10             	add    $0x10,%esp
  10074a:	fb                   	sti    
  10074b:	90                   	nop
  10074c:	c9                   	leave  
  10074d:	c3                   	ret    

0010074e <populate_cpu_info>:
  10074e:	55                   	push   %ebp
  10074f:	89 e5                	mov    %esp,%ebp
  100751:	53                   	push   %ebx
  100752:	83 ec 24             	sub    $0x24,%esp
  100755:	83 ec 0c             	sub    $0xc,%esp
  100758:	8d 45 e4             	lea    -0x1c(%ebp),%eax
  10075b:	50                   	push   %eax
  10075c:	8d 45 e8             	lea    -0x18(%ebp),%eax
  10075f:	50                   	push   %eax
  100760:	8d 45 ec             	lea    -0x14(%ebp),%eax
  100763:	50                   	push   %eax
  100764:	8d 45 f0             	lea    -0x10(%ebp),%eax
  100767:	50                   	push   %eax
  100768:	6a 00                	push   $0x0
  10076a:	e8 e7 05 00 00       	call   100d56 <cpuid>
  10076f:	83 c4 20             	add    $0x20,%esp
  100772:	8b 45 08             	mov    0x8(%ebp),%eax
  100775:	8d 50 10             	lea    0x10(%eax),%edx
  100778:	8b 45 ec             	mov    -0x14(%ebp),%eax
  10077b:	89 02                	mov    %eax,(%edx)
  10077d:	8b 45 08             	mov    0x8(%ebp),%eax
  100780:	83 c0 10             	add    $0x10,%eax
  100783:	8d 50 04             	lea    0x4(%eax),%edx
  100786:	8b 45 e4             	mov    -0x1c(%ebp),%eax
  100789:	89 02                	mov    %eax,(%edx)
  10078b:	8b 45 08             	mov    0x8(%ebp),%eax
  10078e:	83 c0 10             	add    $0x10,%eax
  100791:	8d 50 08             	lea    0x8(%eax),%edx
  100794:	8b 45 e8             	mov    -0x18(%ebp),%eax
  100797:	89 02                	mov    %eax,(%edx)
  100799:	8b 45 08             	mov    0x8(%ebp),%eax
  10079c:	c6 40 1c 00          	movb   $0x0,0x1c(%eax)
  1007a0:	8b 45 08             	mov    0x8(%ebp),%eax
  1007a3:	83 c0 42             	add    $0x42,%eax
  1007a6:	89 45 f4             	mov    %eax,-0xc(%ebp)
  1007a9:	83 ec 0c             	sub    $0xc,%esp
  1007ac:	8d 45 e4             	lea    -0x1c(%ebp),%eax
  1007af:	50                   	push   %eax
  1007b0:	8d 45 e8             	lea    -0x18(%ebp),%eax
  1007b3:	50                   	push   %eax
  1007b4:	8d 45 ec             	lea    -0x14(%ebp),%eax
  1007b7:	50                   	push   %eax
  1007b8:	8d 45 f0             	lea    -0x10(%ebp),%eax
  1007bb:	50                   	push   %eax
  1007bc:	68 02 00 00 80       	push   $0x80000002
  1007c1:	e8 90 05 00 00       	call   100d56 <cpuid>
  1007c6:	83 c4 20             	add    $0x20,%esp
  1007c9:	8b 55 f0             	mov    -0x10(%ebp),%edx
  1007cc:	8b 45 f4             	mov    -0xc(%ebp),%eax
  1007cf:	89 10                	mov    %edx,(%eax)
  1007d1:	8b 45 f4             	mov    -0xc(%ebp),%eax
  1007d4:	8d 50 04             	lea    0x4(%eax),%edx
  1007d7:	8b 45 ec             	mov    -0x14(%ebp),%eax
  1007da:	89 02                	mov    %eax,(%edx)
  1007dc:	8b 45 f4             	mov    -0xc(%ebp),%eax
  1007df:	8d 50 08             	lea    0x8(%eax),%edx
  1007e2:	8b 45 e8             	mov    -0x18(%ebp),%eax
  1007e5:	89 02                	mov    %eax,(%edx)
  1007e7:	8b 45 f4             	mov    -0xc(%ebp),%eax
  1007ea:	8d 50 0c             	lea    0xc(%eax),%edx
  1007ed:	8b 45 e4             	mov    -0x1c(%ebp),%eax
  1007f0:	89 02                	mov    %eax,(%edx)
  1007f2:	83 ec 0c             	sub    $0xc,%esp
  1007f5:	8d 45 e4             	lea    -0x1c(%ebp),%eax
  1007f8:	50                   	push   %eax
  1007f9:	8d 45 e8             	lea    -0x18(%ebp),%eax
  1007fc:	50                   	push   %eax
  1007fd:	8d 45 ec             	lea    -0x14(%ebp),%eax
  100800:	50                   	push   %eax
  100801:	8d 45 f0             	lea    -0x10(%ebp),%eax
  100804:	50                   	push   %eax
  100805:	68 03 00 00 80       	push   $0x80000003
  10080a:	e8 47 05 00 00       	call   100d56 <cpuid>
  10080f:	83 c4 20             	add    $0x20,%esp
  100812:	8b 45 f4             	mov    -0xc(%ebp),%eax
  100815:	8d 50 10             	lea    0x10(%eax),%edx
  100818:	8b 45 f0             	mov    -0x10(%ebp),%eax
  10081b:	89 02                	mov    %eax,(%edx)
  10081d:	8b 45 f4             	mov    -0xc(%ebp),%eax
  100820:	8d 50 14             	lea    0x14(%eax),%edx
  100823:	8b 45 ec             	mov    -0x14(%ebp),%eax
  100826:	89 02                	mov    %eax,(%edx)
  100828:	8b 45 f4             	mov    -0xc(%ebp),%eax
  10082b:	8d 50 18             	lea    0x18(%eax),%edx
  10082e:	8b 45 e8             	mov    -0x18(%ebp),%eax
  100831:	89 02                	mov    %eax,(%edx)
  100833:	8b 45 f4             	mov    -0xc(%ebp),%eax
  100836:	8d 50 1c             	lea    0x1c(%eax),%edx
  100839:	8b 45 e4             	mov    -0x1c(%ebp),%eax
  10083c:	89 02                	mov    %eax,(%edx)
  10083e:	83 ec 0c             	sub    $0xc,%esp
  100841:	8d 45 e4             	lea    -0x1c(%ebp),%eax
  100844:	50                   	push   %eax
  100845:	8d 45 e8             	lea    -0x18(%ebp),%eax
  100848:	50                   	push   %eax
  100849:	8d 45 ec             	lea    -0x14(%ebp),%eax
  10084c:	50                   	push   %eax
  10084d:	8d 45 f0             	lea    -0x10(%ebp),%eax
  100850:	50                   	push   %eax
  100851:	68 04 00 00 80       	push   $0x80000004
  100856:	e8 fb 04 00 00       	call   100d56 <cpuid>
  10085b:	83 c4 20             	add    $0x20,%esp
  10085e:	8b 45 f4             	mov    -0xc(%ebp),%eax
  100861:	8d 50 20             	lea    0x20(%eax),%edx
  100864:	8b 45 f0             	mov    -0x10(%ebp),%eax
  100867:	89 02                	mov    %eax,(%edx)
  100869:	8b 45 f4             	mov    -0xc(%ebp),%eax
  10086c:	8d 50 24             	lea    0x24(%eax),%edx
  10086f:	8b 45 ec             	mov    -0x14(%ebp),%eax
  100872:	89 02                	mov    %eax,(%edx)
  100874:	8b 45 f4             	mov    -0xc(%ebp),%eax
  100877:	8d 50 28             	lea    0x28(%eax),%edx
  10087a:	8b 45 e8             	mov    -0x18(%ebp),%eax
  10087d:	89 02                	mov    %eax,(%edx)
  10087f:	8b 45 f4             	mov    -0xc(%ebp),%eax
  100882:	8d 50 2c             	lea    0x2c(%eax),%edx
  100885:	8b 45 e4             	mov    -0x1c(%ebp),%eax
  100888:	89 02                	mov    %eax,(%edx)
  10088a:	8b 45 08             	mov    0x8(%ebp),%eax
  10088d:	c6 40 72 00          	movb   $0x0,0x72(%eax)
  100891:	83 ec 0c             	sub    $0xc,%esp
  100894:	8d 45 e4             	lea    -0x1c(%ebp),%eax
  100897:	50                   	push   %eax
  100898:	8d 45 e8             	lea    -0x18(%ebp),%eax
  10089b:	50                   	push   %eax
  10089c:	8d 45 ec             	lea    -0x14(%ebp),%eax
  10089f:	50                   	push   %eax
  1008a0:	8d 45 f0             	lea    -0x10(%ebp),%eax
  1008a3:	50                   	push   %eax
  1008a4:	6a 01                	push   $0x1
  1008a6:	e8 ab 04 00 00       	call   100d56 <cpuid>
  1008ab:	83 c4 20             	add    $0x20,%esp
  1008ae:	8b 45 ec             	mov    -0x14(%ebp),%eax
  1008b1:	c1 e8 10             	shr    $0x10,%eax
  1008b4:	0f b6 d0             	movzbl %al,%edx
  1008b7:	8b 45 08             	mov    0x8(%ebp),%eax
  1008ba:	89 50 04             	mov    %edx,0x4(%eax)
  1008bd:	8b 45 e4             	mov    -0x1c(%ebp),%eax
  1008c0:	25 00 00 00 10       	and    $0x10000000,%eax
  1008c5:	85 c0                	test   %eax,%eax
  1008c7:	0f 95 c2             	setne  %dl
  1008ca:	8b 45 08             	mov    0x8(%ebp),%eax
  1008cd:	88 90 a6 00 00 00    	mov    %dl,0xa6(%eax)
  1008d3:	8b 5d e4             	mov    -0x1c(%ebp),%ebx
  1008d6:	8b 4d e8             	mov    -0x18(%ebp),%ecx
  1008d9:	8b 55 ec             	mov    -0x14(%ebp),%edx
  1008dc:	8b 45 f0             	mov    -0x10(%ebp),%eax
  1008df:	83 ec 08             	sub    $0x8,%esp
  1008e2:	53                   	push   %ebx
  1008e3:	51                   	push   %ecx
  1008e4:	52                   	push   %edx
  1008e5:	50                   	push   %eax
  1008e6:	68 00 45 12 00       	push   $0x124500
  1008eb:	68 40 44 12 00       	push   $0x124440
  1008f0:	e8 3e 03 00 00       	call   100c33 <printf_com>
  1008f5:	83 c4 20             	add    $0x20,%esp
  1008f8:	8b 45 08             	mov    0x8(%ebp),%eax
  1008fb:	0f b6 80 a6 00 00 00 	movzbl 0xa6(%eax),%eax
  100902:	0f b6 d0             	movzbl %al,%edx
  100905:	8b 45 08             	mov    0x8(%ebp),%eax
  100908:	8b 40 04             	mov    0x4(%eax),%eax
  10090b:	52                   	push   %edx
  10090c:	50                   	push   %eax
  10090d:	68 00 45 12 00       	push   $0x124500
  100912:	68 70 44 12 00       	push   $0x124470
  100917:	e8 17 03 00 00       	call   100c33 <printf_com>
  10091c:	83 c4 10             	add    $0x10,%esp
  10091f:	83 ec 0c             	sub    $0xc,%esp
  100922:	8d 45 e4             	lea    -0x1c(%ebp),%eax
  100925:	50                   	push   %eax
  100926:	8d 45 e8             	lea    -0x18(%ebp),%eax
  100929:	50                   	push   %eax
  10092a:	8d 45 ec             	lea    -0x14(%ebp),%eax
  10092d:	50                   	push   %eax
  10092e:	8d 45 f0             	lea    -0x10(%ebp),%eax
  100931:	50                   	push   %eax
  100932:	6a 02                	push   $0x2
  100934:	e8 1d 04 00 00       	call   100d56 <cpuid>
  100939:	83 c4 20             	add    $0x20,%esp
  10093c:	8b 45 f0             	mov    -0x10(%ebp),%eax
  10093f:	c1 e8 10             	shr    $0x10,%eax
  100942:	c1 e0 0a             	shl    $0xa,%eax
  100945:	89 c2                	mov    %eax,%edx
  100947:	8b 45 08             	mov    0x8(%ebp),%eax
  10094a:	89 50 0c             	mov    %edx,0xc(%eax)
  10094d:	83 ec 0c             	sub    $0xc,%esp
  100950:	8d 45 e4             	lea    -0x1c(%ebp),%eax
  100953:	50                   	push   %eax
  100954:	8d 45 e8             	lea    -0x18(%ebp),%eax
  100957:	50                   	push   %eax
  100958:	8d 45 ec             	lea    -0x14(%ebp),%eax
  10095b:	50                   	push   %eax
  10095c:	8d 45 f0             	lea    -0x10(%ebp),%eax
  10095f:	50                   	push   %eax
  100960:	6a 16                	push   $0x16
  100962:	e8 ef 03 00 00       	call   100d56 <cpuid>
  100967:	83 c4 20             	add    $0x20,%esp
  10096a:	8b 45 f0             	mov    -0x10(%ebp),%eax
  10096d:	0f b7 d0             	movzwl %ax,%edx
  100970:	8b 45 08             	mov    0x8(%ebp),%eax
  100973:	89 50 08             	mov    %edx,0x8(%eax)
  100976:	8b 45 ec             	mov    -0x14(%ebp),%eax
  100979:	0f b7 d0             	movzwl %ax,%edx
  10097c:	8b 45 08             	mov    0x8(%ebp),%eax
  10097f:	89 90 b0 00 00 00    	mov    %edx,0xb0(%eax)
  100985:	8b 5d e4             	mov    -0x1c(%ebp),%ebx
  100988:	8b 4d e8             	mov    -0x18(%ebp),%ecx
  10098b:	8b 55 ec             	mov    -0x14(%ebp),%edx
  10098e:	8b 45 f0             	mov    -0x10(%ebp),%eax
  100991:	83 ec 08             	sub    $0x8,%esp
  100994:	53                   	push   %ebx
  100995:	51                   	push   %ecx
  100996:	52                   	push   %edx
  100997:	50                   	push   %eax
  100998:	68 00 45 12 00       	push   $0x124500
  10099d:	68 98 44 12 00       	push   $0x124498
  1009a2:	e8 8c 02 00 00       	call   100c33 <printf_com>
  1009a7:	83 c4 20             	add    $0x20,%esp
  1009aa:	8b 45 08             	mov    0x8(%ebp),%eax
  1009ad:	8b 90 b0 00 00 00    	mov    0xb0(%eax),%edx
  1009b3:	8b 45 08             	mov    0x8(%ebp),%eax
  1009b6:	8b 40 08             	mov    0x8(%eax),%eax
  1009b9:	52                   	push   %edx
  1009ba:	50                   	push   %eax
  1009bb:	68 00 45 12 00       	push   $0x124500
  1009c0:	68 cc 44 12 00       	push   $0x1244cc
  1009c5:	e8 69 02 00 00       	call   100c33 <printf_com>
  1009ca:	83 c4 10             	add    $0x10,%esp
  1009cd:	8b 45 08             	mov    0x8(%ebp),%eax
  1009d0:	c7 00 01 00 00 00    	movl   $0x1,(%eax)
  1009d6:	8b 45 08             	mov    0x8(%ebp),%eax
  1009d9:	c7 80 ac 00 00 00 00 	movl   $0x0,0xac(%eax)
  1009e0:	00 00 00 
  1009e3:	8b 45 08             	mov    0x8(%ebp),%eax
  1009e6:	c7 80 b4 00 00 00 00 	movl   $0x0,0xb4(%eax)
  1009ed:	00 00 00 
  1009f0:	8b 45 08             	mov    0x8(%ebp),%eax
  1009f3:	c7 80 b8 00 00 00 00 	movl   $0x0,0xb8(%eax)
  1009fa:	00 00 00 
  1009fd:	8b 45 08             	mov    0x8(%ebp),%eax
  100a00:	d9 ee                	fldz   
  100a02:	d9 98 bc 00 00 00    	fstps  0xbc(%eax)
  100a08:	90                   	nop
  100a09:	8b 5d fc             	mov    -0x4(%ebp),%ebx
  100a0c:	c9                   	leave  
  100a0d:	c3                   	ret    

00100a0e <populate_system_info>:
  100a0e:	55                   	push   %ebp
  100a0f:	89 e5                	mov    %esp,%ebp
  100a11:	57                   	push   %edi
  100a12:	56                   	push   %esi
  100a13:	53                   	push   %ebx
  100a14:	81 ec 0c 01 00 00    	sub    $0x10c,%esp
  100a1a:	8b 45 08             	mov    0x8(%ebp),%eax
  100a1d:	05 00 01 00 00       	add    $0x100,%eax
  100a22:	83 ec 0c             	sub    $0xc,%esp
  100a25:	50                   	push   %eax
  100a26:	e8 23 fd ff ff       	call   10074e <populate_cpu_info>
  100a2b:	83 c4 10             	add    $0x10,%esp
  100a2e:	8b 45 08             	mov    0x8(%ebp),%eax
  100a31:	05 c0 01 00 00       	add    $0x1c0,%eax
  100a36:	bb 40 e4 16 00       	mov    $0x16e440,%ebx
  100a3b:	ba 13 00 00 00       	mov    $0x13,%edx
  100a40:	89 c7                	mov    %eax,%edi
  100a42:	89 de                	mov    %ebx,%esi
  100a44:	89 d1                	mov    %edx,%ecx
  100a46:	f3 a5                	rep movsl %ds:(%esi),%es:(%edi)
  100a48:	c7 85 e8 fe ff ff 41 	movl   $0x65687441,-0x118(%ebp)
  100a4f:	74 68 65 
  100a52:	c7 85 ec fe ff ff 6e 	movl   $0x642d586e,-0x114(%ebp)
  100a59:	58 2d 64 
  100a5c:	c7 85 f0 fe ff ff 65 	movl   $0x702d7665,-0x110(%ebp)
  100a63:	76 2d 70 
  100a66:	c7 85 f4 fe ff ff 63 	movl   $0x63,-0x10c(%ebp)
  100a6d:	00 00 00 
  100a70:	8d 95 f8 fe ff ff    	lea    -0x108(%ebp),%edx
  100a76:	b8 00 00 00 00       	mov    $0x0,%eax
  100a7b:	b9 3c 00 00 00       	mov    $0x3c,%ecx
  100a80:	89 d7                	mov    %edx,%edi
  100a82:	f3 ab                	rep stos %eax,%es:(%edi)
  100a84:	8b 45 08             	mov    0x8(%ebp),%eax
  100a87:	83 ec 08             	sub    $0x8,%esp
  100a8a:	8d 95 e8 fe ff ff    	lea    -0x118(%ebp),%edx
  100a90:	52                   	push   %edx
  100a91:	50                   	push   %eax
  100a92:	e8 ca 2a 02 00       	call   123561 <strcpy>
  100a97:	83 c4 10             	add    $0x10,%esp
  100a9a:	90                   	nop
  100a9b:	8d 65 f4             	lea    -0xc(%ebp),%esp
  100a9e:	5b                   	pop    %ebx
  100a9f:	5e                   	pop    %esi
  100aa0:	5f                   	pop    %edi
  100aa1:	5d                   	pop    %ebp
  100aa2:	c3                   	ret    

00100aa3 <init_system_info>:
  100aa3:	55                   	push   %ebp
  100aa4:	89 e5                	mov    %esp,%ebp
  100aa6:	83 ec 08             	sub    $0x8,%esp
  100aa9:	83 ec 0c             	sub    $0xc,%esp
  100aac:	68 80 e8 13 00       	push   $0x13e880
  100ab1:	e8 58 ff ff ff       	call   100a0e <populate_system_info>
  100ab6:	83 c4 10             	add    $0x10,%esp
  100ab9:	90                   	nop
  100aba:	c9                   	leave  
  100abb:	c3                   	ret    

00100abc <inportb>:
  100abc:	55                   	push   %ebp
  100abd:	89 e5                	mov    %esp,%ebp
  100abf:	83 ec 14             	sub    $0x14,%esp
  100ac2:	8b 45 08             	mov    0x8(%ebp),%eax
  100ac5:	66 89 45 ec          	mov    %ax,-0x14(%ebp)
  100ac9:	0f b7 45 ec          	movzwl -0x14(%ebp),%eax
  100acd:	89 c2                	mov    %eax,%edx
  100acf:	ec                   	in     (%dx),%al
  100ad0:	88 45 ff             	mov    %al,-0x1(%ebp)
  100ad3:	0f b6 45 ff          	movzbl -0x1(%ebp),%eax
  100ad7:	c9                   	leave  
  100ad8:	c3                   	ret    

00100ad9 <outportb>:
  100ad9:	55                   	push   %ebp
  100ada:	89 e5                	mov    %esp,%ebp
  100adc:	83 ec 08             	sub    $0x8,%esp
  100adf:	8b 45 08             	mov    0x8(%ebp),%eax
  100ae2:	8b 55 0c             	mov    0xc(%ebp),%edx
  100ae5:	66 89 45 fc          	mov    %ax,-0x4(%ebp)
  100ae9:	89 d0                	mov    %edx,%eax
  100aeb:	88 45 f8             	mov    %al,-0x8(%ebp)
  100aee:	0f b7 55 fc          	movzwl -0x4(%ebp),%edx
  100af2:	0f b6 45 f8          	movzbl -0x8(%ebp),%eax
  100af6:	ee                   	out    %al,(%dx)
  100af7:	90                   	nop
  100af8:	c9                   	leave  
  100af9:	c3                   	ret    

00100afa <inports>:
  100afa:	55                   	push   %ebp
  100afb:	89 e5                	mov    %esp,%ebp
  100afd:	83 ec 14             	sub    $0x14,%esp
  100b00:	8b 45 08             	mov    0x8(%ebp),%eax
  100b03:	66 89 45 ec          	mov    %ax,-0x14(%ebp)
  100b07:	0f b7 45 ec          	movzwl -0x14(%ebp),%eax
  100b0b:	89 c2                	mov    %eax,%edx
  100b0d:	66 ed                	in     (%dx),%ax
  100b0f:	66 89 45 fe          	mov    %ax,-0x2(%ebp)
  100b13:	0f b7 45 fe          	movzwl -0x2(%ebp),%eax
  100b17:	c9                   	leave  
  100b18:	c3                   	ret    

00100b19 <outports>:
  100b19:	55                   	push   %ebp
  100b1a:	89 e5                	mov    %esp,%ebp
  100b1c:	83 ec 08             	sub    $0x8,%esp
  100b1f:	8b 55 08             	mov    0x8(%ebp),%edx
  100b22:	8b 45 0c             	mov    0xc(%ebp),%eax
  100b25:	66 89 55 fc          	mov    %dx,-0x4(%ebp)
  100b29:	66 89 45 f8          	mov    %ax,-0x8(%ebp)
  100b2d:	0f b7 55 fc          	movzwl -0x4(%ebp),%edx
  100b31:	0f b7 45 f8          	movzwl -0x8(%ebp),%eax
  100b35:	66 ef                	out    %ax,(%dx)
  100b37:	90                   	nop
  100b38:	c9                   	leave  
  100b39:	c3                   	ret    

00100b3a <inportl>:
  100b3a:	55                   	push   %ebp
  100b3b:	89 e5                	mov    %esp,%ebp
  100b3d:	83 ec 14             	sub    $0x14,%esp
  100b40:	8b 45 08             	mov    0x8(%ebp),%eax
  100b43:	66 89 45 ec          	mov    %ax,-0x14(%ebp)
  100b47:	0f b7 45 ec          	movzwl -0x14(%ebp),%eax
  100b4b:	89 c2                	mov    %eax,%edx
  100b4d:	ed                   	in     (%dx),%eax
  100b4e:	89 45 fc             	mov    %eax,-0x4(%ebp)
  100b51:	8b 45 fc             	mov    -0x4(%ebp),%eax
  100b54:	c9                   	leave  
  100b55:	c3                   	ret    

00100b56 <outportl>:
  100b56:	55                   	push   %ebp
  100b57:	89 e5                	mov    %esp,%ebp
  100b59:	83 ec 04             	sub    $0x4,%esp
  100b5c:	8b 45 08             	mov    0x8(%ebp),%eax
  100b5f:	66 89 45 fc          	mov    %ax,-0x4(%ebp)
  100b63:	0f b7 55 fc          	movzwl -0x4(%ebp),%edx
  100b67:	8b 45 0c             	mov    0xc(%ebp),%eax
  100b6a:	ef                   	out    %eax,(%dx)
  100b6b:	90                   	nop
  100b6c:	c9                   	leave  
  100b6d:	c3                   	ret    

00100b6e <write_to_com1>:
  100b6e:	55                   	push   %ebp
  100b6f:	89 e5                	mov    %esp,%ebp
  100b71:	83 ec 04             	sub    $0x4,%esp
  100b74:	8b 45 08             	mov    0x8(%ebp),%eax
  100b77:	88 45 fc             	mov    %al,-0x4(%ebp)
  100b7a:	0f b6 45 fc          	movzbl -0x4(%ebp),%eax
  100b7e:	50                   	push   %eax
  100b7f:	68 f8 03 00 00       	push   $0x3f8
  100b84:	e8 50 ff ff ff       	call   100ad9 <outportb>
  100b89:	83 c4 08             	add    $0x8,%esp
  100b8c:	90                   	nop
  100b8d:	c9                   	leave  
  100b8e:	c3                   	ret    

00100b8f <write_to_com1_string>:
  100b8f:	55                   	push   %ebp
  100b90:	89 e5                	mov    %esp,%ebp
  100b92:	83 ec 18             	sub    $0x18,%esp
  100b95:	a1 00 e0 12 00       	mov    0x12e000,%eax
  100b9a:	83 f8 01             	cmp    $0x1,%eax
  100b9d:	75 37                	jne    100bd6 <write_to_com1_string+0x47>
  100b9f:	c7 45 f4 00 00 00 00 	movl   $0x0,-0xc(%ebp)
  100ba6:	eb 1b                	jmp    100bc3 <write_to_com1_string+0x34>
  100ba8:	8b 55 08             	mov    0x8(%ebp),%edx
  100bab:	8b 45 f4             	mov    -0xc(%ebp),%eax
  100bae:	01 d0                	add    %edx,%eax
  100bb0:	0f b6 00             	movzbl (%eax),%eax
  100bb3:	0f b6 c0             	movzbl %al,%eax
  100bb6:	50                   	push   %eax
  100bb7:	e8 b2 ff ff ff       	call   100b6e <write_to_com1>
  100bbc:	83 c4 04             	add    $0x4,%esp
  100bbf:	83 45 f4 01          	addl   $0x1,-0xc(%ebp)
  100bc3:	83 ec 0c             	sub    $0xc,%esp
  100bc6:	ff 75 08             	push   0x8(%ebp)
  100bc9:	e8 af 28 02 00       	call   12347d <strlen>
  100bce:	83 c4 10             	add    $0x10,%esp
  100bd1:	39 45 f4             	cmp    %eax,-0xc(%ebp)
  100bd4:	72 d2                	jb     100ba8 <write_to_com1_string+0x19>
  100bd6:	90                   	nop
  100bd7:	c9                   	leave  
  100bd8:	c3                   	ret    

00100bd9 <printf_error>:
  100bd9:	55                   	push   %ebp
  100bda:	89 e5                	mov    %esp,%ebp
  100bdc:	81 ec 18 01 00 00    	sub    $0x118,%esp
  100be2:	8d 45 0c             	lea    0xc(%ebp),%eax
  100be5:	89 85 f0 fe ff ff    	mov    %eax,-0x110(%ebp)
  100beb:	8b 85 f0 fe ff ff    	mov    -0x110(%ebp),%eax
  100bf1:	50                   	push   %eax
  100bf2:	ff 75 08             	push   0x8(%ebp)
  100bf5:	68 00 01 00 00       	push   $0x100
  100bfa:	8d 85 f4 fe ff ff    	lea    -0x10c(%ebp),%eax
  100c00:	50                   	push   %eax
  100c01:	e8 23 15 02 00       	call   122129 <vsnprintf_>
  100c06:	83 c4 10             	add    $0x10,%esp
  100c09:	c7 45 f4 12 45 12 00 	movl   $0x124512,-0xc(%ebp)
  100c10:	83 ec 0c             	sub    $0xc,%esp
  100c13:	ff 75 f4             	push   -0xc(%ebp)
  100c16:	e8 74 ff ff ff       	call   100b8f <write_to_com1_string>
  100c1b:	83 c4 10             	add    $0x10,%esp
  100c1e:	83 ec 0c             	sub    $0xc,%esp
  100c21:	8d 85 f4 fe ff ff    	lea    -0x10c(%ebp),%eax
  100c27:	50                   	push   %eax
  100c28:	e8 62 ff ff ff       	call   100b8f <write_to_com1_string>
  100c2d:	83 c4 10             	add    $0x10,%esp
  100c30:	90                   	nop
  100c31:	c9                   	leave  
  100c32:	c3                   	ret    

00100c33 <printf_com>:
  100c33:	55                   	push   %ebp
  100c34:	89 e5                	mov    %esp,%ebp
  100c36:	81 ec 08 04 00 00    	sub    $0x408,%esp
  100c3c:	8d 45 0c             	lea    0xc(%ebp),%eax
  100c3f:	89 85 00 fc ff ff    	mov    %eax,-0x400(%ebp)
  100c45:	8b 85 00 fc ff ff    	mov    -0x400(%ebp),%eax
  100c4b:	50                   	push   %eax
  100c4c:	ff 75 08             	push   0x8(%ebp)
  100c4f:	68 f1 03 00 00       	push   $0x3f1
  100c54:	8d 85 07 fc ff ff    	lea    -0x3f9(%ebp),%eax
  100c5a:	50                   	push   %eax
  100c5b:	e8 c9 14 02 00       	call   122129 <vsnprintf_>
  100c60:	83 c4 10             	add    $0x10,%esp
  100c63:	83 ec 0c             	sub    $0xc,%esp
  100c66:	8d 85 07 fc ff ff    	lea    -0x3f9(%ebp),%eax
  100c6c:	50                   	push   %eax
  100c6d:	e8 1d ff ff ff       	call   100b8f <write_to_com1_string>
  100c72:	83 c4 10             	add    $0x10,%esp
  100c75:	90                   	nop
  100c76:	c9                   	leave  
  100c77:	c3                   	ret    

00100c78 <configure_com1>:
  100c78:	55                   	push   %ebp
  100c79:	89 e5                	mov    %esp,%ebp
  100c7b:	53                   	push   %ebx
  100c7c:	83 ec 20             	sub    $0x20,%esp
  100c7f:	8b 45 08             	mov    0x8(%ebp),%eax
  100c82:	8b 5d 0c             	mov    0xc(%ebp),%ebx
  100c85:	8b 4d 10             	mov    0x10(%ebp),%ecx
  100c88:	8b 55 14             	mov    0x14(%ebp),%edx
  100c8b:	66 89 45 e8          	mov    %ax,-0x18(%ebp)
  100c8f:	89 d8                	mov    %ebx,%eax
  100c91:	88 45 e4             	mov    %al,-0x1c(%ebp)
  100c94:	89 c8                	mov    %ecx,%eax
  100c96:	88 45 e0             	mov    %al,-0x20(%ebp)
  100c99:	89 d0                	mov    %edx,%eax
  100c9b:	88 45 dc             	mov    %al,-0x24(%ebp)
  100c9e:	6a 00                	push   $0x0
  100ca0:	68 f9 03 00 00       	push   $0x3f9
  100ca5:	e8 2f fe ff ff       	call   100ad9 <outportb>
  100caa:	83 c4 08             	add    $0x8,%esp
  100cad:	0f b7 4d e8          	movzwl -0x18(%ebp),%ecx
  100cb1:	b8 00 c2 01 00       	mov    $0x1c200,%eax
  100cb6:	99                   	cltd   
  100cb7:	f7 f9                	idiv   %ecx
  100cb9:	66 89 45 fa          	mov    %ax,-0x6(%ebp)
  100cbd:	68 80 00 00 00       	push   $0x80
  100cc2:	68 fb 03 00 00       	push   $0x3fb
  100cc7:	e8 0d fe ff ff       	call   100ad9 <outportb>
  100ccc:	83 c4 08             	add    $0x8,%esp
  100ccf:	0f b7 45 fa          	movzwl -0x6(%ebp),%eax
  100cd3:	0f b6 c0             	movzbl %al,%eax
  100cd6:	50                   	push   %eax
  100cd7:	68 f8 03 00 00       	push   $0x3f8
  100cdc:	e8 f8 fd ff ff       	call   100ad9 <outportb>
  100ce1:	83 c4 08             	add    $0x8,%esp
  100ce4:	0f b7 45 fa          	movzwl -0x6(%ebp),%eax
  100ce8:	66 c1 e8 08          	shr    $0x8,%ax
  100cec:	0f b6 c0             	movzbl %al,%eax
  100cef:	50                   	push   %eax
  100cf0:	68 f9 03 00 00       	push   $0x3f9
  100cf5:	e8 df fd ff ff       	call   100ad9 <outportb>
  100cfa:	83 c4 08             	add    $0x8,%esp
  100cfd:	6a 03                	push   $0x3
  100cff:	68 fb 03 00 00       	push   $0x3fb
  100d04:	e8 d0 fd ff ff       	call   100ad9 <outportb>
  100d09:	83 c4 08             	add    $0x8,%esp
  100d0c:	68 c7 00 00 00       	push   $0xc7
  100d11:	68 fa 03 00 00       	push   $0x3fa
  100d16:	e8 be fd ff ff       	call   100ad9 <outportb>
  100d1b:	83 c4 08             	add    $0x8,%esp
  100d1e:	6a 0b                	push   $0xb
  100d20:	68 fc 03 00 00       	push   $0x3fc
  100d25:	e8 af fd ff ff       	call   100ad9 <outportb>
  100d2a:	83 c4 08             	add    $0x8,%esp
  100d2d:	90                   	nop
  100d2e:	8b 5d fc             	mov    -0x4(%ebp),%ebx
  100d31:	c9                   	leave  
  100d32:	c3                   	ret    

00100d33 <init_com1>:
  100d33:	55                   	push   %ebp
  100d34:	89 e5                	mov    %esp,%ebp
  100d36:	6a 00                	push   $0x0
  100d38:	6a 01                	push   $0x1
  100d3a:	6a 08                	push   $0x8
  100d3c:	68 80 25 00 00       	push   $0x2580
  100d41:	e8 32 ff ff ff       	call   100c78 <configure_com1>
  100d46:	83 c4 10             	add    $0x10,%esp
  100d49:	c7 05 00 e0 12 00 01 	movl   $0x1,0x12e000
  100d50:	00 00 00 
  100d53:	90                   	nop
  100d54:	c9                   	leave  
  100d55:	c3                   	ret    

00100d56 <cpuid>:
  100d56:	55                   	push   %ebp
  100d57:	89 e5                	mov    %esp,%ebp
  100d59:	56                   	push   %esi
  100d5a:	53                   	push   %ebx
  100d5b:	8b 45 08             	mov    0x8(%ebp),%eax
  100d5e:	0f a2                	cpuid  
  100d60:	89 c6                	mov    %eax,%esi
  100d62:	8b 45 0c             	mov    0xc(%ebp),%eax
  100d65:	89 30                	mov    %esi,(%eax)
  100d67:	8b 45 10             	mov    0x10(%ebp),%eax
  100d6a:	89 18                	mov    %ebx,(%eax)
  100d6c:	8b 45 14             	mov    0x14(%ebp),%eax
  100d6f:	89 08                	mov    %ecx,(%eax)
  100d71:	8b 45 18             	mov    0x18(%ebp),%eax
  100d74:	89 10                	mov    %edx,(%eax)
  100d76:	90                   	nop
  100d77:	5b                   	pop    %ebx
  100d78:	5e                   	pop    %esi
  100d79:	5d                   	pop    %ebp
  100d7a:	c3                   	ret    

00100d7b <get_cpu_name>:
  100d7b:	55                   	push   %ebp
  100d7c:	89 e5                	mov    %esp,%ebp
  100d7e:	83 ec 10             	sub    $0x10,%esp
  100d81:	8d 45 f0             	lea    -0x10(%ebp),%eax
  100d84:	50                   	push   %eax
  100d85:	8d 45 f4             	lea    -0xc(%ebp),%eax
  100d88:	50                   	push   %eax
  100d89:	8d 45 f8             	lea    -0x8(%ebp),%eax
  100d8c:	50                   	push   %eax
  100d8d:	8d 45 fc             	lea    -0x4(%ebp),%eax
  100d90:	50                   	push   %eax
  100d91:	68 02 00 00 80       	push   $0x80000002
  100d96:	e8 bb ff ff ff       	call   100d56 <cpuid>
  100d9b:	83 c4 14             	add    $0x14,%esp
  100d9e:	8b 55 fc             	mov    -0x4(%ebp),%edx
  100da1:	8b 45 08             	mov    0x8(%ebp),%eax
  100da4:	89 10                	mov    %edx,(%eax)
  100da6:	8b 45 08             	mov    0x8(%ebp),%eax
  100da9:	8d 50 04             	lea    0x4(%eax),%edx
  100dac:	8b 45 f8             	mov    -0x8(%ebp),%eax
  100daf:	89 02                	mov    %eax,(%edx)
  100db1:	8b 45 08             	mov    0x8(%ebp),%eax
  100db4:	8d 50 08             	lea    0x8(%eax),%edx
  100db7:	8b 45 f4             	mov    -0xc(%ebp),%eax
  100dba:	89 02                	mov    %eax,(%edx)
  100dbc:	8b 45 08             	mov    0x8(%ebp),%eax
  100dbf:	8d 50 0c             	lea    0xc(%eax),%edx
  100dc2:	8b 45 f0             	mov    -0x10(%ebp),%eax
  100dc5:	89 02                	mov    %eax,(%edx)
  100dc7:	8d 45 f0             	lea    -0x10(%ebp),%eax
  100dca:	50                   	push   %eax
  100dcb:	8d 45 f4             	lea    -0xc(%ebp),%eax
  100dce:	50                   	push   %eax
  100dcf:	8d 45 f8             	lea    -0x8(%ebp),%eax
  100dd2:	50                   	push   %eax
  100dd3:	8d 45 fc             	lea    -0x4(%ebp),%eax
  100dd6:	50                   	push   %eax
  100dd7:	68 03 00 00 80       	push   $0x80000003
  100ddc:	e8 75 ff ff ff       	call   100d56 <cpuid>
  100de1:	83 c4 14             	add    $0x14,%esp
  100de4:	8b 45 08             	mov    0x8(%ebp),%eax
  100de7:	8d 50 10             	lea    0x10(%eax),%edx
  100dea:	8b 45 fc             	mov    -0x4(%ebp),%eax
  100ded:	89 02                	mov    %eax,(%edx)
  100def:	8b 45 08             	mov    0x8(%ebp),%eax
  100df2:	8d 50 14             	lea    0x14(%eax),%edx
  100df5:	8b 45 f8             	mov    -0x8(%ebp),%eax
  100df8:	89 02                	mov    %eax,(%edx)
  100dfa:	8b 45 08             	mov    0x8(%ebp),%eax
  100dfd:	8d 50 18             	lea    0x18(%eax),%edx
  100e00:	8b 45 f4             	mov    -0xc(%ebp),%eax
  100e03:	89 02                	mov    %eax,(%edx)
  100e05:	8b 45 08             	mov    0x8(%ebp),%eax
  100e08:	8d 50 1c             	lea    0x1c(%eax),%edx
  100e0b:	8b 45 f0             	mov    -0x10(%ebp),%eax
  100e0e:	89 02                	mov    %eax,(%edx)
  100e10:	8d 45 f0             	lea    -0x10(%ebp),%eax
  100e13:	50                   	push   %eax
  100e14:	8d 45 f4             	lea    -0xc(%ebp),%eax
  100e17:	50                   	push   %eax
  100e18:	8d 45 f8             	lea    -0x8(%ebp),%eax
  100e1b:	50                   	push   %eax
  100e1c:	8d 45 fc             	lea    -0x4(%ebp),%eax
  100e1f:	50                   	push   %eax
  100e20:	68 04 00 00 80       	push   $0x80000004
  100e25:	e8 2c ff ff ff       	call   100d56 <cpuid>
  100e2a:	83 c4 14             	add    $0x14,%esp
  100e2d:	8b 45 08             	mov    0x8(%ebp),%eax
  100e30:	8d 50 20             	lea    0x20(%eax),%edx
  100e33:	8b 45 fc             	mov    -0x4(%ebp),%eax
  100e36:	89 02                	mov    %eax,(%edx)
  100e38:	8b 45 08             	mov    0x8(%ebp),%eax
  100e3b:	8d 50 24             	lea    0x24(%eax),%edx
  100e3e:	8b 45 f8             	mov    -0x8(%ebp),%eax
  100e41:	89 02                	mov    %eax,(%edx)
  100e43:	8b 45 08             	mov    0x8(%ebp),%eax
  100e46:	8d 50 28             	lea    0x28(%eax),%edx
  100e49:	8b 45 f4             	mov    -0xc(%ebp),%eax
  100e4c:	89 02                	mov    %eax,(%edx)
  100e4e:	8b 45 08             	mov    0x8(%ebp),%eax
  100e51:	8d 50 2c             	lea    0x2c(%eax),%edx
  100e54:	8b 45 f0             	mov    -0x10(%ebp),%eax
  100e57:	89 02                	mov    %eax,(%edx)
  100e59:	8b 45 08             	mov    0x8(%ebp),%eax
  100e5c:	83 c0 10             	add    $0x10,%eax
  100e5f:	c6 00 00             	movb   $0x0,(%eax)
  100e62:	90                   	nop
  100e63:	c9                   	leave  
  100e64:	c3                   	ret    

00100e65 <get_cpu_info>:
  100e65:	55                   	push   %ebp
  100e66:	89 e5                	mov    %esp,%ebp
  100e68:	83 ec 38             	sub    $0x38,%esp
  100e6b:	8d 45 d8             	lea    -0x28(%ebp),%eax
  100e6e:	50                   	push   %eax
  100e6f:	8d 45 dc             	lea    -0x24(%ebp),%eax
  100e72:	50                   	push   %eax
  100e73:	8d 45 e0             	lea    -0x20(%ebp),%eax
  100e76:	50                   	push   %eax
  100e77:	8d 45 e4             	lea    -0x1c(%ebp),%eax
  100e7a:	50                   	push   %eax
  100e7b:	68 02 00 00 80       	push   $0x80000002
  100e80:	e8 d1 fe ff ff       	call   100d56 <cpuid>
  100e85:	83 c4 14             	add    $0x14,%esp
  100e88:	8b 55 e4             	mov    -0x1c(%ebp),%edx
  100e8b:	8b 45 08             	mov    0x8(%ebp),%eax
  100e8e:	89 10                	mov    %edx,(%eax)
  100e90:	8b 45 08             	mov    0x8(%ebp),%eax
  100e93:	8d 50 04             	lea    0x4(%eax),%edx
  100e96:	8b 45 e0             	mov    -0x20(%ebp),%eax
  100e99:	89 02                	mov    %eax,(%edx)
  100e9b:	8b 45 08             	mov    0x8(%ebp),%eax
  100e9e:	8d 50 08             	lea    0x8(%eax),%edx
  100ea1:	8b 45 dc             	mov    -0x24(%ebp),%eax
  100ea4:	89 02                	mov    %eax,(%edx)
  100ea6:	8b 45 08             	mov    0x8(%ebp),%eax
  100ea9:	8d 50 0c             	lea    0xc(%eax),%edx
  100eac:	8b 45 d8             	mov    -0x28(%ebp),%eax
  100eaf:	89 02                	mov    %eax,(%edx)
  100eb1:	8d 45 d8             	lea    -0x28(%ebp),%eax
  100eb4:	50                   	push   %eax
  100eb5:	8d 45 dc             	lea    -0x24(%ebp),%eax
  100eb8:	50                   	push   %eax
  100eb9:	8d 45 e0             	lea    -0x20(%ebp),%eax
  100ebc:	50                   	push   %eax
  100ebd:	8d 45 e4             	lea    -0x1c(%ebp),%eax
  100ec0:	50                   	push   %eax
  100ec1:	68 03 00 00 80       	push   $0x80000003
  100ec6:	e8 8b fe ff ff       	call   100d56 <cpuid>
  100ecb:	83 c4 14             	add    $0x14,%esp
  100ece:	8b 45 08             	mov    0x8(%ebp),%eax
  100ed1:	8d 50 10             	lea    0x10(%eax),%edx
  100ed4:	8b 45 e4             	mov    -0x1c(%ebp),%eax
  100ed7:	89 02                	mov    %eax,(%edx)
  100ed9:	8b 45 08             	mov    0x8(%ebp),%eax
  100edc:	8d 50 14             	lea    0x14(%eax),%edx
  100edf:	8b 45 e0             	mov    -0x20(%ebp),%eax
  100ee2:	89 02                	mov    %eax,(%edx)
  100ee4:	8b 45 08             	mov    0x8(%ebp),%eax
  100ee7:	8d 50 18             	lea    0x18(%eax),%edx
  100eea:	8b 45 dc             	mov    -0x24(%ebp),%eax
  100eed:	89 02                	mov    %eax,(%edx)
  100eef:	8b 45 08             	mov    0x8(%ebp),%eax
  100ef2:	8d 50 1c             	lea    0x1c(%eax),%edx
  100ef5:	8b 45 d8             	mov    -0x28(%ebp),%eax
  100ef8:	89 02                	mov    %eax,(%edx)
  100efa:	8d 45 d8             	lea    -0x28(%ebp),%eax
  100efd:	50                   	push   %eax
  100efe:	8d 45 dc             	lea    -0x24(%ebp),%eax
  100f01:	50                   	push   %eax
  100f02:	8d 45 e0             	lea    -0x20(%ebp),%eax
  100f05:	50                   	push   %eax
  100f06:	8d 45 e4             	lea    -0x1c(%ebp),%eax
  100f09:	50                   	push   %eax
  100f0a:	68 04 00 00 80       	push   $0x80000004
  100f0f:	e8 42 fe ff ff       	call   100d56 <cpuid>
  100f14:	83 c4 14             	add    $0x14,%esp
  100f17:	8b 45 08             	mov    0x8(%ebp),%eax
  100f1a:	8d 50 20             	lea    0x20(%eax),%edx
  100f1d:	8b 45 e4             	mov    -0x1c(%ebp),%eax
  100f20:	89 02                	mov    %eax,(%edx)
  100f22:	8b 45 08             	mov    0x8(%ebp),%eax
  100f25:	8d 50 24             	lea    0x24(%eax),%edx
  100f28:	8b 45 e0             	mov    -0x20(%ebp),%eax
  100f2b:	89 02                	mov    %eax,(%edx)
  100f2d:	8b 45 08             	mov    0x8(%ebp),%eax
  100f30:	8d 50 28             	lea    0x28(%eax),%edx
  100f33:	8b 45 dc             	mov    -0x24(%ebp),%eax
  100f36:	89 02                	mov    %eax,(%edx)
  100f38:	8b 45 08             	mov    0x8(%ebp),%eax
  100f3b:	8d 50 2c             	lea    0x2c(%eax),%edx
  100f3e:	8b 45 d8             	mov    -0x28(%ebp),%eax
  100f41:	89 02                	mov    %eax,(%edx)
  100f43:	8b 45 08             	mov    0x8(%ebp),%eax
  100f46:	83 c0 30             	add    $0x30,%eax
  100f49:	c6 00 00             	movb   $0x0,(%eax)
  100f4c:	8d 45 d8             	lea    -0x28(%ebp),%eax
  100f4f:	50                   	push   %eax
  100f50:	8d 45 dc             	lea    -0x24(%ebp),%eax
  100f53:	50                   	push   %eax
  100f54:	8d 45 e0             	lea    -0x20(%ebp),%eax
  100f57:	50                   	push   %eax
  100f58:	8d 45 e4             	lea    -0x1c(%ebp),%eax
  100f5b:	50                   	push   %eax
  100f5c:	6a 00                	push   $0x0
  100f5e:	e8 f3 fd ff ff       	call   100d56 <cpuid>
  100f63:	83 c4 14             	add    $0x14,%esp
  100f66:	83 ec 04             	sub    $0x4,%esp
  100f69:	6a 04                	push   $0x4
  100f6b:	8d 45 e0             	lea    -0x20(%ebp),%eax
  100f6e:	50                   	push   %eax
  100f6f:	8d 45 cb             	lea    -0x35(%ebp),%eax
  100f72:	50                   	push   %eax
  100f73:	e8 6f 23 02 00       	call   1232e7 <memcpy>
  100f78:	83 c4 10             	add    $0x10,%esp
  100f7b:	8d 45 cb             	lea    -0x35(%ebp),%eax
  100f7e:	83 c0 04             	add    $0x4,%eax
  100f81:	83 ec 04             	sub    $0x4,%esp
  100f84:	6a 04                	push   $0x4
  100f86:	8d 55 d8             	lea    -0x28(%ebp),%edx
  100f89:	52                   	push   %edx
  100f8a:	50                   	push   %eax
  100f8b:	e8 57 23 02 00       	call   1232e7 <memcpy>
  100f90:	83 c4 10             	add    $0x10,%esp
  100f93:	8d 45 cb             	lea    -0x35(%ebp),%eax
  100f96:	83 c0 08             	add    $0x8,%eax
  100f99:	83 ec 04             	sub    $0x4,%esp
  100f9c:	6a 04                	push   $0x4
  100f9e:	8d 55 dc             	lea    -0x24(%ebp),%edx
  100fa1:	52                   	push   %edx
  100fa2:	50                   	push   %eax
  100fa3:	e8 3f 23 02 00       	call   1232e7 <memcpy>
  100fa8:	83 c4 10             	add    $0x10,%esp
  100fab:	c6 45 d7 00          	movb   $0x0,-0x29(%ebp)
  100faf:	83 ec 08             	sub    $0x8,%esp
  100fb2:	68 1a 45 12 00       	push   $0x12451a
  100fb7:	8d 45 cb             	lea    -0x35(%ebp),%eax
  100fba:	50                   	push   %eax
  100fbb:	e8 e5 24 02 00       	call   1234a5 <strcmp>
  100fc0:	83 c4 10             	add    $0x10,%esp
  100fc3:	85 c0                	test   %eax,%eax
  100fc5:	75 15                	jne    100fdc <get_cpu_info+0x177>
  100fc7:	83 ec 08             	sub    $0x8,%esp
  100fca:	68 27 45 12 00       	push   $0x124527
  100fcf:	ff 75 0c             	push   0xc(%ebp)
  100fd2:	e8 8a 25 02 00       	call   123561 <strcpy>
  100fd7:	83 c4 10             	add    $0x10,%esp
  100fda:	eb 40                	jmp    10101c <get_cpu_info+0x1b7>
  100fdc:	83 ec 08             	sub    $0x8,%esp
  100fdf:	68 2b 45 12 00       	push   $0x12452b
  100fe4:	8d 45 cb             	lea    -0x35(%ebp),%eax
  100fe7:	50                   	push   %eax
  100fe8:	e8 b8 24 02 00       	call   1234a5 <strcmp>
  100fed:	83 c4 10             	add    $0x10,%esp
  100ff0:	85 c0                	test   %eax,%eax
  100ff2:	75 15                	jne    101009 <get_cpu_info+0x1a4>
  100ff4:	83 ec 08             	sub    $0x8,%esp
  100ff7:	68 27 45 12 00       	push   $0x124527
  100ffc:	ff 75 0c             	push   0xc(%ebp)
  100fff:	e8 5d 25 02 00       	call   123561 <strcpy>
  101004:	83 c4 10             	add    $0x10,%esp
  101007:	eb 13                	jmp    10101c <get_cpu_info+0x1b7>
  101009:	83 ec 08             	sub    $0x8,%esp
  10100c:	68 38 45 12 00       	push   $0x124538
  101011:	ff 75 0c             	push   0xc(%ebp)
  101014:	e8 48 25 02 00       	call   123561 <strcpy>
  101019:	83 c4 10             	add    $0x10,%esp
  10101c:	83 ec 0c             	sub    $0xc,%esp
  10101f:	8d 45 d8             	lea    -0x28(%ebp),%eax
  101022:	50                   	push   %eax
  101023:	8d 45 dc             	lea    -0x24(%ebp),%eax
  101026:	50                   	push   %eax
  101027:	8d 45 e0             	lea    -0x20(%ebp),%eax
  10102a:	50                   	push   %eax
  10102b:	8d 45 e4             	lea    -0x1c(%ebp),%eax
  10102e:	50                   	push   %eax
  10102f:	6a 01                	push   $0x1
  101031:	e8 20 fd ff ff       	call   100d56 <cpuid>
  101036:	83 c4 20             	add    $0x20,%esp
  101039:	8b 45 e4             	mov    -0x1c(%ebp),%eax
  10103c:	c1 e8 08             	shr    $0x8,%eax
  10103f:	83 e0 0f             	and    $0xf,%eax
  101042:	89 45 f4             	mov    %eax,-0xc(%ebp)
  101045:	8b 45 e4             	mov    -0x1c(%ebp),%eax
  101048:	c1 e8 04             	shr    $0x4,%eax
  10104b:	83 e0 0f             	and    $0xf,%eax
  10104e:	89 45 f0             	mov    %eax,-0x10(%ebp)
  101051:	8b 45 e4             	mov    -0x1c(%ebp),%eax
  101054:	c1 e8 14             	shr    $0x14,%eax
  101057:	25 ff 00 00 00       	and    $0xff,%eax
  10105c:	89 45 ec             	mov    %eax,-0x14(%ebp)
  10105f:	8b 45 e4             	mov    -0x1c(%ebp),%eax
  101062:	c1 e8 10             	shr    $0x10,%eax
  101065:	83 e0 0f             	and    $0xf,%eax
  101068:	89 45 e8             	mov    %eax,-0x18(%ebp)
  10106b:	83 7d f4 0f          	cmpl   $0xf,-0xc(%ebp)
  10106f:	75 0f                	jne    101080 <get_cpu_info+0x21b>
  101071:	8b 55 f4             	mov    -0xc(%ebp),%edx
  101074:	8b 45 ec             	mov    -0x14(%ebp),%eax
  101077:	01 c2                	add    %eax,%edx
  101079:	8b 45 10             	mov    0x10(%ebp),%eax
  10107c:	89 10                	mov    %edx,(%eax)
  10107e:	eb 08                	jmp    101088 <get_cpu_info+0x223>
  101080:	8b 45 10             	mov    0x10(%ebp),%eax
  101083:	8b 55 f4             	mov    -0xc(%ebp),%edx
  101086:	89 10                	mov    %edx,(%eax)
  101088:	83 7d f4 06          	cmpl   $0x6,-0xc(%ebp)
  10108c:	74 06                	je     101094 <get_cpu_info+0x22f>
  10108e:	83 7d f4 0f          	cmpl   $0xf,-0xc(%ebp)
  101092:	75 12                	jne    1010a6 <get_cpu_info+0x241>
  101094:	8b 45 e8             	mov    -0x18(%ebp),%eax
  101097:	c1 e0 04             	shl    $0x4,%eax
  10109a:	0b 45 f0             	or     -0x10(%ebp),%eax
  10109d:	89 c2                	mov    %eax,%edx
  10109f:	8b 45 14             	mov    0x14(%ebp),%eax
  1010a2:	89 10                	mov    %edx,(%eax)
  1010a4:	eb 08                	jmp    1010ae <get_cpu_info+0x249>
  1010a6:	8b 45 14             	mov    0x14(%ebp),%eax
  1010a9:	8b 55 f0             	mov    -0x10(%ebp),%edx
  1010ac:	89 10                	mov    %edx,(%eax)
  1010ae:	8b 45 e4             	mov    -0x1c(%ebp),%eax
  1010b1:	83 e0 0f             	and    $0xf,%eax
  1010b4:	89 c2                	mov    %eax,%edx
  1010b6:	8b 45 18             	mov    0x18(%ebp),%eax
  1010b9:	89 10                	mov    %edx,(%eax)
  1010bb:	90                   	nop
  1010bc:	c9                   	leave  
  1010bd:	c3                   	ret    

001010be <bios32_init>:
  1010be:	55                   	push   %ebp
  1010bf:	89 e5                	mov    %esp,%ebp
  1010c1:	83 ec 08             	sub    $0x8,%esp
  1010c4:	83 ec 0c             	sub    $0xc,%esp
  1010c7:	6a 0f                	push   $0xf
  1010c9:	68 9a 00 00 00       	push   $0x9a
  1010ce:	6a ff                	push   $0xffffffff
  1010d0:	6a 00                	push   $0x0
  1010d2:	6a 06                	push   $0x6
  1010d4:	e8 4d f0 ff ff       	call   100126 <gdt_set_entry>
  1010d9:	83 c4 20             	add    $0x20,%esp
  1010dc:	83 ec 0c             	sub    $0xc,%esp
  1010df:	6a 0f                	push   $0xf
  1010e1:	68 92 00 00 00       	push   $0x92
  1010e6:	6a ff                	push   $0xffffffff
  1010e8:	6a 00                	push   $0x0
  1010ea:	6a 07                	push   $0x7
  1010ec:	e8 35 f0 ff ff       	call   100126 <gdt_set_entry>
  1010f1:	83 c4 20             	add    $0x20,%esp
  1010f4:	b8 20 e0 13 00       	mov    $0x13e020,%eax
  1010f9:	a3 96 ea 13 00       	mov    %eax,0x13ea96
  1010fe:	66 c7 05 94 ea 13 00 	movw   $0x3f,0x13ea94
  101105:	3f 00 
  101107:	c7 05 8e ea 13 00 00 	movl   $0x0,0x13ea8e
  10110e:	00 00 00 
  101111:	66 c7 05 8c ea 13 00 	movw   $0x3ff,0x13ea8c
  101118:	ff 03 
  10111a:	90                   	nop
  10111b:	c9                   	leave  
  10111c:	c3                   	ret    

0010111d <bios32_service>:
  10111d:	55                   	push   %ebp
  10111e:	89 e5                	mov    %esp,%ebp
  101120:	83 ec 28             	sub    $0x28,%esp
  101123:	8b 45 08             	mov    0x8(%ebp),%eax
  101126:	88 45 e4             	mov    %al,-0x1c(%ebp)
  101129:	c7 45 f4 00 7c 00 00 	movl   $0x7c00,-0xc(%ebp)
  101130:	83 ec 04             	sub    $0x4,%esp
  101133:	6a 40                	push   $0x40
  101135:	68 20 e0 13 00       	push   $0x13e020
  10113a:	68 cb 42 12 00       	push   $0x1242cb
  10113f:	e8 a3 21 02 00       	call   1232e7 <memcpy>
  101144:	83 c4 10             	add    $0x10,%esp
  101147:	b8 00 42 12 00       	mov    $0x124200,%eax
  10114c:	ba 00 7c 00 00       	mov    $0x7c00,%edx
  101151:	29 c2                	sub    %eax,%edx
  101153:	89 d0                	mov    %edx,%eax
  101155:	05 cb 42 12 00       	add    $0x1242cb,%eax
  10115a:	a3 96 ea 13 00       	mov    %eax,0x13ea96
  10115f:	83 ec 04             	sub    $0x4,%esp
  101162:	6a 06                	push   $0x6
  101164:	68 94 ea 13 00       	push   $0x13ea94
  101169:	68 0b 43 12 00       	push   $0x12430b
  10116e:	e8 74 21 02 00       	call   1232e7 <memcpy>
  101173:	83 c4 10             	add    $0x10,%esp
  101176:	83 ec 04             	sub    $0x4,%esp
  101179:	6a 06                	push   $0x6
  10117b:	68 8c ea 13 00       	push   $0x13ea8c
  101180:	68 13 43 12 00       	push   $0x124313
  101185:	e8 5d 21 02 00       	call   1232e7 <memcpy>
  10118a:	83 c4 10             	add    $0x10,%esp
  10118d:	83 ec 04             	sub    $0x4,%esp
  101190:	6a 1c                	push   $0x1c
  101192:	ff 75 0c             	push   0xc(%ebp)
  101195:	68 1b 43 12 00       	push   $0x12431b
  10119a:	e8 48 21 02 00       	call   1232e7 <memcpy>
  10119f:	83 c4 10             	add    $0x10,%esp
  1011a2:	b8 00 42 12 00       	mov    $0x124200,%eax
  1011a7:	ba 00 7c 00 00       	mov    $0x7c00,%edx
  1011ac:	29 c2                	sub    %eax,%edx
  1011ae:	89 d0                	mov    %edx,%eax
  1011b0:	05 1b 43 12 00       	add    $0x12431b,%eax
  1011b5:	89 45 f0             	mov    %eax,-0x10(%ebp)
  1011b8:	83 ec 04             	sub    $0x4,%esp
  1011bb:	6a 01                	push   $0x1
  1011bd:	8d 45 e4             	lea    -0x1c(%ebp),%eax
  1011c0:	50                   	push   %eax
  1011c1:	68 70 42 12 00       	push   $0x124270
  1011c6:	e8 1c 21 02 00       	call   1232e7 <memcpy>
  1011cb:	83 c4 10             	add    $0x10,%esp
  1011ce:	ba 55 43 12 00       	mov    $0x124355,%edx
  1011d3:	b8 00 42 12 00       	mov    $0x124200,%eax
  1011d8:	29 c2                	sub    %eax,%edx
  1011da:	89 d0                	mov    %edx,%eax
  1011dc:	89 45 ec             	mov    %eax,-0x14(%ebp)
  1011df:	83 ec 04             	sub    $0x4,%esp
  1011e2:	ff 75 ec             	push   -0x14(%ebp)
  1011e5:	68 00 42 12 00       	push   $0x124200
  1011ea:	ff 75 f4             	push   -0xc(%ebp)
  1011ed:	e8 f5 20 02 00       	call   1232e7 <memcpy>
  1011f2:	83 c4 10             	add    $0x10,%esp
  1011f5:	a1 10 c0 12 00       	mov    0x12c010,%eax
  1011fa:	ff d0                	call   *%eax
  1011fc:	b8 00 42 12 00       	mov    $0x124200,%eax
  101201:	ba 00 7c 00 00       	mov    $0x7c00,%edx
  101206:	29 c2                	sub    %eax,%edx
  101208:	89 d0                	mov    %edx,%eax
  10120a:	05 37 43 12 00       	add    $0x124337,%eax
  10120f:	89 45 f0             	mov    %eax,-0x10(%ebp)
  101212:	83 ec 04             	sub    $0x4,%esp
  101215:	6a 1c                	push   $0x1c
  101217:	ff 75 f0             	push   -0x10(%ebp)
  10121a:	ff 75 10             	push   0x10(%ebp)
  10121d:	e8 c5 20 02 00       	call   1232e7 <memcpy>
  101222:	83 c4 10             	add    $0x10,%esp
  101225:	e8 87 ef ff ff       	call   1001b1 <gdt_init>
  10122a:	e8 82 f0 ff ff       	call   1002b1 <idt_init>
  10122f:	90                   	nop
  101230:	c9                   	leave  
  101231:	c3                   	ret    

00101232 <int86>:
  101232:	55                   	push   %ebp
  101233:	89 e5                	mov    %esp,%ebp
  101235:	83 ec 18             	sub    $0x18,%esp
  101238:	8b 45 08             	mov    0x8(%ebp),%eax
  10123b:	88 45 f4             	mov    %al,-0xc(%ebp)
  10123e:	0f b6 45 f4          	movzbl -0xc(%ebp),%eax
  101242:	83 ec 04             	sub    $0x4,%esp
  101245:	ff 75 10             	push   0x10(%ebp)
  101248:	ff 75 0c             	push   0xc(%ebp)
  10124b:	50                   	push   %eax
  10124c:	e8 cc fe ff ff       	call   10111d <bios32_service>
  101251:	83 c4 10             	add    $0x10,%esp
  101254:	90                   	nop
  101255:	c9                   	leave  
  101256:	c3                   	ret    

00101257 <isr_register_interrupt_handler>:
  101257:	55                   	push   %ebp
  101258:	89 e5                	mov    %esp,%ebp
  10125a:	83 ec 08             	sub    $0x8,%esp
  10125d:	ff 75 10             	push   0x10(%ebp)
  101260:	ff 75 08             	push   0x8(%ebp)
  101263:	68 6c 49 12 00       	push   $0x12496c
  101268:	68 fc 46 12 00       	push   $0x1246fc
  10126d:	e8 c1 f9 ff ff       	call   100c33 <printf_com>
  101272:	83 c4 10             	add    $0x10,%esp
  101275:	81 7d 08 ff 00 00 00 	cmpl   $0xff,0x8(%ebp)
  10127c:	7f 35                	jg     1012b3 <isr_register_interrupt_handler+0x5c>
  10127e:	8b 45 08             	mov    0x8(%ebp),%eax
  101281:	8b 04 85 a0 ea 13 00 	mov    0x13eaa0(,%eax,4),%eax
  101288:	85 c0                	test   %eax,%eax
  10128a:	75 0f                	jne    10129b <isr_register_interrupt_handler+0x44>
  10128c:	8b 45 08             	mov    0x8(%ebp),%eax
  10128f:	8b 55 0c             	mov    0xc(%ebp),%edx
  101292:	89 14 85 a0 ea 13 00 	mov    %edx,0x13eaa0(,%eax,4)
  101299:	eb 18                	jmp    1012b3 <isr_register_interrupt_handler+0x5c>
  10129b:	ff 75 10             	push   0x10(%ebp)
  10129e:	ff 75 08             	push   0x8(%ebp)
  1012a1:	68 6c 49 12 00       	push   $0x12496c
  1012a6:	68 1c 47 12 00       	push   $0x12471c
  1012ab:	e8 83 f9 ff ff       	call   100c33 <printf_com>
  1012b0:	83 c4 10             	add    $0x10,%esp
  1012b3:	90                   	nop
  1012b4:	c9                   	leave  
  1012b5:	c3                   	ret    

001012b6 <isr_end_interrupt>:
  1012b6:	55                   	push   %ebp
  1012b7:	89 e5                	mov    %esp,%ebp
  1012b9:	83 ec 08             	sub    $0x8,%esp
  1012bc:	8b 45 08             	mov    0x8(%ebp),%eax
  1012bf:	0f b6 c0             	movzbl %al,%eax
  1012c2:	83 ec 0c             	sub    $0xc,%esp
  1012c5:	50                   	push   %eax
  1012c6:	e8 99 06 00 00       	call   101964 <pic8259_eoi>
  1012cb:	83 c4 10             	add    $0x10,%esp
  1012ce:	90                   	nop
  1012cf:	c9                   	leave  
  1012d0:	c3                   	ret    

001012d1 <isr_irq_handler>:
  1012d1:	55                   	push   %ebp
  1012d2:	89 e5                	mov    %esp,%ebp
  1012d4:	83 ec 18             	sub    $0x18,%esp
  1012d7:	8b 45 08             	mov    0x8(%ebp),%eax
  1012da:	8b 40 24             	mov    0x24(%eax),%eax
  1012dd:	8b 04 85 a0 ea 13 00 	mov    0x13eaa0(,%eax,4),%eax
  1012e4:	85 c0                	test   %eax,%eax
  1012e6:	74 20                	je     101308 <isr_irq_handler+0x37>
  1012e8:	8b 45 08             	mov    0x8(%ebp),%eax
  1012eb:	8b 40 24             	mov    0x24(%eax),%eax
  1012ee:	8b 04 85 a0 ea 13 00 	mov    0x13eaa0(,%eax,4),%eax
  1012f5:	89 45 f4             	mov    %eax,-0xc(%ebp)
  1012f8:	83 ec 0c             	sub    $0xc,%esp
  1012fb:	ff 75 08             	push   0x8(%ebp)
  1012fe:	8b 45 f4             	mov    -0xc(%ebp),%eax
  101301:	ff d0                	call   *%eax
  101303:	83 c4 10             	add    $0x10,%esp
  101306:	eb 1c                	jmp    101324 <isr_irq_handler+0x53>
  101308:	8b 45 08             	mov    0x8(%ebp),%eax
  10130b:	8b 40 24             	mov    0x24(%eax),%eax
  10130e:	83 ec 04             	sub    $0x4,%esp
  101311:	50                   	push   %eax
  101312:	68 8c 49 12 00       	push   $0x12498c
  101317:	68 54 47 12 00       	push   $0x124754
  10131c:	e8 12 f9 ff ff       	call   100c33 <printf_com>
  101321:	83 c4 10             	add    $0x10,%esp
  101324:	8b 45 08             	mov    0x8(%ebp),%eax
  101327:	8b 40 24             	mov    0x24(%eax),%eax
  10132a:	0f b6 c0             	movzbl %al,%eax
  10132d:	83 ec 0c             	sub    $0xc,%esp
  101330:	50                   	push   %eax
  101331:	e8 2e 06 00 00       	call   101964 <pic8259_eoi>
  101336:	83 c4 10             	add    $0x10,%esp
  101339:	90                   	nop
  10133a:	c9                   	leave  
  10133b:	c3                   	ret    

0010133c <print_registers>:
  10133c:	55                   	push   %ebp
  10133d:	89 e5                	mov    %esp,%ebp
  10133f:	53                   	push   %ebx
  101340:	83 ec 04             	sub    $0x4,%esp
  101343:	e8 43 20 00 00       	call   10338b <cls>
  101348:	83 ec 0c             	sub    $0xc,%esp
  10134b:	68 7a 47 12 00       	push   $0x12477a
  101350:	e8 d4 07 02 00       	call   121b29 <printf>
  101355:	83 c4 10             	add    $0x10,%esp
  101358:	8b 45 08             	mov    0x8(%ebp),%eax
  10135b:	8b 40 28             	mov    0x28(%eax),%eax
  10135e:	83 ec 08             	sub    $0x8,%esp
  101361:	50                   	push   %eax
  101362:	68 86 47 12 00       	push   $0x124786
  101367:	e8 bd 07 02 00       	call   121b29 <printf>
  10136c:	83 c4 10             	add    $0x10,%esp
  10136f:	8b 45 08             	mov    0x8(%ebp),%eax
  101372:	8b 58 18             	mov    0x18(%eax),%ebx
  101375:	8b 45 08             	mov    0x8(%ebp),%eax
  101378:	8b 48 1c             	mov    0x1c(%eax),%ecx
  10137b:	8b 45 08             	mov    0x8(%ebp),%eax
  10137e:	8b 50 14             	mov    0x14(%eax),%edx
  101381:	8b 45 08             	mov    0x8(%ebp),%eax
  101384:	8b 40 20             	mov    0x20(%eax),%eax
  101387:	83 ec 0c             	sub    $0xc,%esp
  10138a:	53                   	push   %ebx
  10138b:	51                   	push   %ecx
  10138c:	52                   	push   %edx
  10138d:	50                   	push   %eax
  10138e:	68 94 47 12 00       	push   $0x124794
  101393:	e8 91 07 02 00       	call   121b29 <printf>
  101398:	83 c4 20             	add    $0x20,%esp
  10139b:	8b 45 08             	mov    0x8(%ebp),%eax
  10139e:	8b 58 10             	mov    0x10(%eax),%ebx
  1013a1:	8b 45 08             	mov    0x8(%ebp),%eax
  1013a4:	8b 48 0c             	mov    0xc(%eax),%ecx
  1013a7:	8b 45 08             	mov    0x8(%ebp),%eax
  1013aa:	8b 50 08             	mov    0x8(%eax),%edx
  1013ad:	8b 45 08             	mov    0x8(%ebp),%eax
  1013b0:	8b 40 04             	mov    0x4(%eax),%eax
  1013b3:	83 ec 0c             	sub    $0xc,%esp
  1013b6:	53                   	push   %ebx
  1013b7:	51                   	push   %ecx
  1013b8:	52                   	push   %edx
  1013b9:	50                   	push   %eax
  1013ba:	68 bc 47 12 00       	push   $0x1247bc
  1013bf:	e8 65 07 02 00       	call   121b29 <printf>
  1013c4:	83 c4 20             	add    $0x20,%esp
  1013c7:	8b 45 08             	mov    0x8(%ebp),%eax
  1013ca:	8b 58 38             	mov    0x38(%eax),%ebx
  1013cd:	8b 45 08             	mov    0x8(%ebp),%eax
  1013d0:	8b 48 34             	mov    0x34(%eax),%ecx
  1013d3:	8b 45 08             	mov    0x8(%ebp),%eax
  1013d6:	8b 50 3c             	mov    0x3c(%eax),%edx
  1013d9:	8b 45 08             	mov    0x8(%ebp),%eax
  1013dc:	8b 40 2c             	mov    0x2c(%eax),%eax
  1013df:	83 ec 0c             	sub    $0xc,%esp
  1013e2:	53                   	push   %ebx
  1013e3:	51                   	push   %ecx
  1013e4:	52                   	push   %edx
  1013e5:	50                   	push   %eax
  1013e6:	68 e4 47 12 00       	push   $0x1247e4
  1013eb:	e8 39 07 02 00       	call   121b29 <printf>
  1013f0:	83 c4 20             	add    $0x20,%esp
  1013f3:	90                   	nop
  1013f4:	8b 5d fc             	mov    -0x4(%ebp),%ebx
  1013f7:	c9                   	leave  
  1013f8:	c3                   	ret    

001013f9 <debug_output>:
  1013f9:	55                   	push   %ebp
  1013fa:	89 e5                	mov    %esp,%ebp
  1013fc:	83 ec 08             	sub    $0x8,%esp
  1013ff:	83 ec 0c             	sub    $0xc,%esp
  101402:	68 1b 48 12 00       	push   $0x12481b
  101407:	e8 1d 07 02 00       	call   121b29 <printf>
  10140c:	83 c4 10             	add    $0x10,%esp
  10140f:	8b 45 08             	mov    0x8(%ebp),%eax
  101412:	8b 40 24             	mov    0x24(%eax),%eax
  101415:	8b 04 85 20 c0 12 00 	mov    0x12c020(,%eax,4),%eax
  10141c:	83 ec 08             	sub    $0x8,%esp
  10141f:	50                   	push   %eax
  101420:	68 27 48 12 00       	push   $0x124827
  101425:	e8 ff 06 02 00       	call   121b29 <printf>
  10142a:	83 c4 10             	add    $0x10,%esp
  10142d:	83 ec 0c             	sub    $0xc,%esp
  101430:	68 31 48 12 00       	push   $0x124831
  101435:	e8 ef 06 02 00       	call   121b29 <printf>
  10143a:	83 c4 10             	add    $0x10,%esp
  10143d:	83 ec 0c             	sub    $0xc,%esp
  101440:	ff 75 08             	push   0x8(%ebp)
  101443:	e8 74 61 00 00       	call   1075bc <unwind_stack>
  101448:	83 c4 10             	add    $0x10,%esp
  10144b:	83 ec 0c             	sub    $0xc,%esp
  10144e:	68 36 48 12 00       	push   $0x124836
  101453:	e8 d1 06 02 00       	call   121b29 <printf>
  101458:	83 c4 10             	add    $0x10,%esp
  10145b:	90                   	nop
  10145c:	c9                   	leave  
  10145d:	c3                   	ret    

0010145e <debug_c>:
  10145e:	55                   	push   %ebp
  10145f:	89 e5                	mov    %esp,%ebp
  101461:	81 ec 88 00 00 00    	sub    $0x88,%esp
  101467:	83 ec 08             	sub    $0x8,%esp
  10146a:	68 4d 48 12 00       	push   $0x12484d
  10146f:	ff 75 08             	push   0x8(%ebp)
  101472:	e8 2e 20 02 00       	call   1234a5 <strcmp>
  101477:	83 c4 10             	add    $0x10,%esp
  10147a:	85 c0                	test   %eax,%eax
  10147c:	0f 85 e7 01 00 00    	jne    101669 <debug_c+0x20b>
  101482:	e8 04 1f 00 00       	call   10338b <cls>
  101487:	c7 45 f4 00 00 00 00 	movl   $0x0,-0xc(%ebp)
  10148e:	c6 45 f3 01          	movb   $0x1,-0xd(%ebp)
  101492:	c7 45 ec 00 00 00 00 	movl   $0x0,-0x14(%ebp)
  101499:	80 7d f3 00          	cmpb   $0x0,-0xd(%ebp)
  10149d:	0f 84 8d 00 00 00    	je     101530 <debug_c+0xd2>
  1014a3:	8b 45 f4             	mov    -0xc(%ebp),%eax
  1014a6:	69 c0 90 05 00 00    	imul   $0x590,%eax,%eax
  1014ac:	05 a0 97 14 00       	add    $0x1497a0,%eax
  1014b1:	89 45 e4             	mov    %eax,-0x1c(%ebp)
  1014b4:	8b 45 e4             	mov    -0x1c(%ebp),%eax
  1014b7:	83 ec 04             	sub    $0x4,%esp
  1014ba:	50                   	push   %eax
  1014bb:	ff 75 f4             	push   -0xc(%ebp)
  1014be:	68 51 48 12 00       	push   $0x124851
  1014c3:	e8 61 06 02 00       	call   121b29 <printf>
  1014c8:	83 c4 10             	add    $0x10,%esp
  1014cb:	8b 45 e4             	mov    -0x1c(%ebp),%eax
  1014ce:	0f b6 80 8c 05 00 00 	movzbl 0x58c(%eax),%eax
  1014d5:	84 c0                	test   %al,%al
  1014d7:	74 0e                	je     1014e7 <debug_c+0x89>
  1014d9:	8b 45 e4             	mov    -0x1c(%ebp),%eax
  1014dc:	8b 80 88 05 00 00    	mov    0x588(%eax),%eax
  1014e2:	89 45 e8             	mov    %eax,-0x18(%ebp)
  1014e5:	eb 07                	jmp    1014ee <debug_c+0x90>
  1014e7:	c7 45 e8 00 00 00 00 	movl   $0x0,-0x18(%ebp)
  1014ee:	8b 45 e4             	mov    -0x1c(%ebp),%eax
  1014f1:	8b 80 84 01 00 00    	mov    0x184(%eax),%eax
  1014f7:	83 ec 0c             	sub    $0xc,%esp
  1014fa:	ff 75 e8             	push   -0x18(%ebp)
  1014fd:	ff 75 0c             	push   0xc(%ebp)
  101500:	68 a0 97 14 00       	push   $0x1497a0
  101505:	6a 40                	push   $0x40
  101507:	50                   	push   %eax
  101508:	e8 b7 6c 00 00       	call   1081c4 <print_stack_frame>
  10150d:	83 c4 20             	add    $0x20,%esp
  101510:	83 ec 0c             	sub    $0xc,%esp
  101513:	68 70 48 12 00       	push   $0x124870
  101518:	e8 0c 06 02 00       	call   121b29 <printf>
  10151d:	83 c4 10             	add    $0x10,%esp
  101520:	83 ec 0c             	sub    $0xc,%esp
  101523:	68 a2 48 12 00       	push   $0x1248a2
  101528:	e8 fc 05 02 00       	call   121b29 <printf>
  10152d:	83 c4 10             	add    $0x10,%esp
  101530:	e8 e2 dc 00 00       	call   10f217 <kb_getchar_w>
  101535:	89 45 e0             	mov    %eax,-0x20(%ebp)
  101538:	83 7d e0 4d          	cmpl   $0x4d,-0x20(%ebp)
  10153c:	75 25                	jne    101563 <debug_c+0x105>
  10153e:	a1 20 e5 12 00       	mov    0x12e520,%eax
  101543:	39 45 f4             	cmp    %eax,-0xc(%ebp)
  101546:	73 12                	jae    10155a <debug_c+0xfc>
  101548:	c6 45 f3 01          	movb   $0x1,-0xd(%ebp)
  10154c:	83 45 f4 01          	addl   $0x1,-0xc(%ebp)
  101550:	e8 36 1e 00 00       	call   10338b <cls>
  101555:	e9 3f ff ff ff       	jmp    101499 <debug_c+0x3b>
  10155a:	c6 45 f3 00          	movb   $0x0,-0xd(%ebp)
  10155e:	e9 36 ff ff ff       	jmp    101499 <debug_c+0x3b>
  101563:	83 7d e0 4b          	cmpl   $0x4b,-0x20(%ebp)
  101567:	75 21                	jne    10158a <debug_c+0x12c>
  101569:	83 7d f4 00          	cmpl   $0x0,-0xc(%ebp)
  10156d:	74 12                	je     101581 <debug_c+0x123>
  10156f:	c6 45 f3 01          	movb   $0x1,-0xd(%ebp)
  101573:	83 6d f4 01          	subl   $0x1,-0xc(%ebp)
  101577:	e8 0f 1e 00 00       	call   10338b <cls>
  10157c:	e9 18 ff ff ff       	jmp    101499 <debug_c+0x3b>
  101581:	c6 45 f3 00          	movb   $0x0,-0xd(%ebp)
  101585:	e9 0f ff ff ff       	jmp    101499 <debug_c+0x3b>
  10158a:	83 7d e0 0a          	cmpl   $0xa,-0x20(%ebp)
  10158e:	74 42                	je     1015d2 <debug_c+0x174>
  101590:	83 7d e0 08          	cmpl   $0x8,-0x20(%ebp)
  101594:	74 3c                	je     1015d2 <debug_c+0x174>
  101596:	c6 45 f3 00          	movb   $0x0,-0xd(%ebp)
  10159a:	83 7d ec 63          	cmpl   $0x63,-0x14(%ebp)
  10159e:	0f 8f c0 00 00 00    	jg     101664 <debug_c+0x206>
  1015a4:	8b 45 e0             	mov    -0x20(%ebp),%eax
  1015a7:	89 c1                	mov    %eax,%ecx
  1015a9:	8d 95 7c ff ff ff    	lea    -0x84(%ebp),%edx
  1015af:	8b 45 ec             	mov    -0x14(%ebp),%eax
  1015b2:	01 d0                	add    %edx,%eax
  1015b4:	88 08                	mov    %cl,(%eax)
  1015b6:	83 ec 08             	sub    $0x8,%esp
  1015b9:	ff 75 e0             	push   -0x20(%ebp)
  1015bc:	68 af 48 12 00       	push   $0x1248af
  1015c1:	e8 63 05 02 00       	call   121b29 <printf>
  1015c6:	83 c4 10             	add    $0x10,%esp
  1015c9:	83 45 ec 01          	addl   $0x1,-0x14(%ebp)
  1015cd:	e9 92 00 00 00       	jmp    101664 <debug_c+0x206>
  1015d2:	83 7d e0 08          	cmpl   $0x8,-0x20(%ebp)
  1015d6:	75 3b                	jne    101613 <debug_c+0x1b5>
  1015d8:	c6 45 f3 00          	movb   $0x0,-0xd(%ebp)
  1015dc:	83 7d ec 00          	cmpl   $0x0,-0x14(%ebp)
  1015e0:	0f 8e b3 fe ff ff    	jle    101499 <debug_c+0x3b>
  1015e6:	b8 b2 48 12 00       	mov    $0x1248b2,%eax
  1015eb:	89 c1                	mov    %eax,%ecx
  1015ed:	8d 95 7c ff ff ff    	lea    -0x84(%ebp),%edx
  1015f3:	8b 45 ec             	mov    -0x14(%ebp),%eax
  1015f6:	01 d0                	add    %edx,%eax
  1015f8:	88 08                	mov    %cl,(%eax)
  1015fa:	83 6d ec 01          	subl   $0x1,-0x14(%ebp)
  1015fe:	83 ec 0c             	sub    $0xc,%esp
  101601:	68 b4 48 12 00       	push   $0x1248b4
  101606:	e8 1e 05 02 00       	call   121b29 <printf>
  10160b:	83 c4 10             	add    $0x10,%esp
  10160e:	e9 86 fe ff ff       	jmp    101499 <debug_c+0x3b>
  101613:	83 7d e0 0a          	cmpl   $0xa,-0x20(%ebp)
  101617:	0f 85 7c fe ff ff    	jne    101499 <debug_c+0x3b>
  10161d:	83 7d ec 00          	cmpl   $0x0,-0x14(%ebp)
  101621:	0f 8e 72 fe ff ff    	jle    101499 <debug_c+0x3b>
  101627:	83 ec 08             	sub    $0x8,%esp
  10162a:	8d 85 7c ff ff ff    	lea    -0x84(%ebp),%eax
  101630:	50                   	push   %eax
  101631:	68 b6 48 12 00       	push   $0x1248b6
  101636:	e8 ee 04 02 00       	call   121b29 <printf>
  10163b:	83 c4 10             	add    $0x10,%esp
  10163e:	c6 45 f3 01          	movb   $0x1,-0xd(%ebp)
  101642:	e8 44 1d 00 00       	call   10338b <cls>
  101647:	83 ec 04             	sub    $0x4,%esp
  10164a:	6a 64                	push   $0x64
  10164c:	6a 00                	push   $0x0
  10164e:	8d 85 7c ff ff ff    	lea    -0x84(%ebp),%eax
  101654:	50                   	push   %eax
  101655:	e8 e1 1a 02 00       	call   12313b <memset>
  10165a:	83 c4 10             	add    $0x10,%esp
  10165d:	c7 45 ec 00 00 00 00 	movl   $0x0,-0x14(%ebp)
  101664:	e9 30 fe ff ff       	jmp    101499 <debug_c+0x3b>
  101669:	83 ec 08             	sub    $0x8,%esp
  10166c:	68 cc 48 12 00       	push   $0x1248cc
  101671:	ff 75 08             	push   0x8(%ebp)
  101674:	e8 2c 1e 02 00       	call   1234a5 <strcmp>
  101679:	83 c4 10             	add    $0x10,%esp
  10167c:	85 c0                	test   %eax,%eax
  10167e:	75 15                	jne    101695 <debug_c+0x237>
  101680:	e8 06 1d 00 00       	call   10338b <cls>
  101685:	83 ec 0c             	sub    $0xc,%esp
  101688:	68 d0 48 12 00       	push   $0x1248d0
  10168d:	e8 77 94 00 00       	call   10ab09 <find_section_for_address>
  101692:	83 c4 10             	add    $0x10,%esp
  101695:	90                   	nop
  101696:	c9                   	leave  
  101697:	c3                   	ret    

00101698 <test_int>:
  101698:	55                   	push   %ebp
  101699:	89 e5                	mov    %esp,%ebp
  10169b:	83 ec 10             	sub    $0x10,%esp
  10169e:	c7 45 fc 2f 00 00 00 	movl   $0x2f,-0x4(%ebp)
  1016a5:	cd 2f                	int    $0x2f
  1016a7:	b8 00 00 00 00       	mov    $0x0,%eax
  1016ac:	c9                   	leave  
  1016ad:	c3                   	ret    

001016ae <test_int_rec>:
  1016ae:	55                   	push   %ebp
  1016af:	89 e5                	mov    %esp,%ebp
  1016b1:	83 ec 08             	sub    $0x8,%esp
  1016b4:	83 ec 08             	sub    $0x8,%esp
  1016b7:	6a 2f                	push   $0x2f
  1016b9:	68 e1 48 12 00       	push   $0x1248e1
  1016be:	e8 66 04 02 00       	call   121b29 <printf>
  1016c3:	83 c4 10             	add    $0x10,%esp
  1016c6:	90                   	nop
  1016c7:	c9                   	leave  
  1016c8:	c3                   	ret    

001016c9 <isr_exception_handler>:
  1016c9:	55                   	push   %ebp
  1016ca:	89 e5                	mov    %esp,%ebp
  1016cc:	81 ec 18 04 00 00    	sub    $0x418,%esp
  1016d2:	8b 45 2c             	mov    0x2c(%ebp),%eax
  1016d5:	83 f8 1f             	cmp    $0x1f,%eax
  1016d8:	0f 87 88 01 00 00    	ja     101866 <isr_exception_handler+0x19d>
  1016de:	e8 0d 08 00 00       	call   101ef0 <LockScheduler>
  1016e3:	a1 04 e0 12 00       	mov    0x12e004,%eax
  1016e8:	83 f8 09             	cmp    $0x9,%eax
  1016eb:	0f 8f 60 01 00 00    	jg     101851 <isr_exception_handler+0x188>
  1016f1:	a1 04 e0 12 00       	mov    0x12e004,%eax
  1016f6:	83 c0 01             	add    $0x1,%eax
  1016f9:	a3 04 e0 12 00       	mov    %eax,0x12e004
  1016fe:	83 ec 0c             	sub    $0xc,%esp
  101701:	8d 45 08             	lea    0x8(%ebp),%eax
  101704:	50                   	push   %eax
  101705:	e8 32 fc ff ff       	call   10133c <print_registers>
  10170a:	83 c4 10             	add    $0x10,%esp
  10170d:	83 ec 0c             	sub    $0xc,%esp
  101710:	8d 45 08             	lea    0x8(%ebp),%eax
  101713:	50                   	push   %eax
  101714:	e8 e0 fc ff ff       	call   1013f9 <debug_output>
  101719:	83 c4 10             	add    $0x10,%esp
  10171c:	83 ec 0c             	sub    $0xc,%esp
  10171f:	68 fc 48 12 00       	push   $0x1248fc
  101724:	e8 00 04 02 00       	call   121b29 <printf>
  101729:	83 c4 10             	add    $0x10,%esp
  10172c:	c7 45 f4 00 00 00 00 	movl   $0x0,-0xc(%ebp)
  101733:	8b 45 30             	mov    0x30(%ebp),%eax
  101736:	83 f8 0e             	cmp    $0xe,%eax
  101739:	74 17                	je     101752 <isr_exception_handler+0x89>
  10173b:	83 ec 0c             	sub    $0xc,%esp
  10173e:	68 0d 49 12 00       	push   $0x12490d
  101743:	e8 e1 03 02 00       	call   121b29 <printf>
  101748:	83 c4 10             	add    $0x10,%esp
  10174b:	e8 b4 07 00 00       	call   101f04 <UnlockScheduler>
  101750:	eb 2d                	jmp    10177f <isr_exception_handler+0xb6>
  101752:	83 ec 0c             	sub    $0xc,%esp
  101755:	68 24 49 12 00       	push   $0x124924
  10175a:	e8 ca 03 02 00       	call   121b29 <printf>
  10175f:	83 c4 10             	add    $0x10,%esp
  101762:	83 ec 04             	sub    $0x4,%esp
  101765:	68 9c 49 12 00       	push   $0x12499c
  10176a:	68 ae 16 10 00       	push   $0x1016ae
  10176f:	6a 2f                	push   $0x2f
  101771:	e8 e1 fa ff ff       	call   101257 <isr_register_interrupt_handler>
  101776:	83 c4 10             	add    $0x10,%esp
  101779:	fb                   	sti    
  10177a:	e8 19 ff ff ff       	call   101698 <test_int>
  10177f:	83 ec 0c             	sub    $0xc,%esp
  101782:	68 45 49 12 00       	push   $0x124945
  101787:	e8 9d 03 02 00       	call   121b29 <printf>
  10178c:	83 c4 10             	add    $0x10,%esp
  10178f:	e8 83 da 00 00       	call   10f217 <kb_getchar_w>
  101794:	89 45 f0             	mov    %eax,-0x10(%ebp)
  101797:	eb 67                	jmp    101800 <isr_exception_handler+0x137>
  101799:	83 7d f0 08          	cmpl   $0x8,-0x10(%ebp)
  10179d:	75 2a                	jne    1017c9 <isr_exception_handler+0x100>
  10179f:	83 7d f4 00          	cmpl   $0x0,-0xc(%ebp)
  1017a3:	7e 24                	jle    1017c9 <isr_exception_handler+0x100>
  1017a5:	83 ec 0c             	sub    $0xc,%esp
  1017a8:	68 b4 48 12 00       	push   $0x1248b4
  1017ad:	e8 77 03 02 00       	call   121b29 <printf>
  1017b2:	83 c4 10             	add    $0x10,%esp
  1017b5:	8d 95 ec fb ff ff    	lea    -0x414(%ebp),%edx
  1017bb:	8b 45 f4             	mov    -0xc(%ebp),%eax
  1017be:	01 d0                	add    %edx,%eax
  1017c0:	c6 00 00             	movb   $0x0,(%eax)
  1017c3:	83 6d f4 01          	subl   $0x1,-0xc(%ebp)
  1017c7:	eb 2f                	jmp    1017f8 <isr_exception_handler+0x12f>
  1017c9:	83 7d f0 00          	cmpl   $0x0,-0x10(%ebp)
  1017cd:	74 29                	je     1017f8 <isr_exception_handler+0x12f>
  1017cf:	83 ec 08             	sub    $0x8,%esp
  1017d2:	ff 75 f0             	push   -0x10(%ebp)
  1017d5:	68 af 48 12 00       	push   $0x1248af
  1017da:	e8 4a 03 02 00       	call   121b29 <printf>
  1017df:	83 c4 10             	add    $0x10,%esp
  1017e2:	8b 45 f0             	mov    -0x10(%ebp),%eax
  1017e5:	89 c1                	mov    %eax,%ecx
  1017e7:	8d 95 ec fb ff ff    	lea    -0x414(%ebp),%edx
  1017ed:	8b 45 f4             	mov    -0xc(%ebp),%eax
  1017f0:	01 d0                	add    %edx,%eax
  1017f2:	88 08                	mov    %cl,(%eax)
  1017f4:	83 45 f4 01          	addl   $0x1,-0xc(%ebp)
  1017f8:	e8 1a da 00 00       	call   10f217 <kb_getchar_w>
  1017fd:	89 45 f0             	mov    %eax,-0x10(%ebp)
  101800:	83 7d f0 0a          	cmpl   $0xa,-0x10(%ebp)
  101804:	75 93                	jne    101799 <isr_exception_handler+0xd0>
  101806:	8b 45 30             	mov    0x30(%ebp),%eax
  101809:	83 ec 08             	sub    $0x8,%esp
  10180c:	50                   	push   %eax
  10180d:	8d 85 ec fb ff ff    	lea    -0x414(%ebp),%eax
  101813:	50                   	push   %eax
  101814:	e8 45 fc ff ff       	call   10145e <debug_c>
  101819:	83 c4 10             	add    $0x10,%esp
  10181c:	83 ec 0c             	sub    $0xc,%esp
  10181f:	68 4d 49 12 00       	push   $0x12494d
  101824:	e8 00 03 02 00       	call   121b29 <printf>
  101829:	83 c4 10             	add    $0x10,%esp
  10182c:	83 ec 04             	sub    $0x4,%esp
  10182f:	68 00 04 00 00       	push   $0x400
  101834:	6a 00                	push   $0x0
  101836:	8d 85 ec fb ff ff    	lea    -0x414(%ebp),%eax
  10183c:	50                   	push   %eax
  10183d:	e8 f9 18 02 00       	call   12313b <memset>
  101842:	83 c4 10             	add    $0x10,%esp
  101845:	c7 45 f4 00 00 00 00 	movl   $0x0,-0xc(%ebp)
  10184c:	e9 2e ff ff ff       	jmp    10177f <isr_exception_handler+0xb6>
  101851:	83 ec 08             	sub    $0x8,%esp
  101854:	68 4f 49 12 00       	push   $0x12494f
  101859:	68 9c 49 12 00       	push   $0x12499c
  10185e:	e8 2f 65 00 00       	call   107d92 <kernel_panic>
  101863:	83 c4 10             	add    $0x10,%esp
  101866:	8b 45 2c             	mov    0x2c(%ebp),%eax
  101869:	8b 04 85 a0 ea 13 00 	mov    0x13eaa0(,%eax,4),%eax
  101870:	85 c0                	test   %eax,%eax
  101872:	74 1c                	je     101890 <isr_exception_handler+0x1c7>
  101874:	8b 45 2c             	mov    0x2c(%ebp),%eax
  101877:	8b 04 85 a0 ea 13 00 	mov    0x13eaa0(,%eax,4),%eax
  10187e:	89 45 ec             	mov    %eax,-0x14(%ebp)
  101881:	83 ec 0c             	sub    $0xc,%esp
  101884:	8d 45 08             	lea    0x8(%ebp),%eax
  101887:	50                   	push   %eax
  101888:	8b 45 ec             	mov    -0x14(%ebp),%eax
  10188b:	ff d0                	call   *%eax
  10188d:	83 c4 10             	add    $0x10,%esp
  101890:	90                   	nop
  101891:	c9                   	leave  
  101892:	c3                   	ret    

00101893 <pic8259_init>:
  101893:	55                   	push   %ebp
  101894:	89 e5                	mov    %esp,%ebp
  101896:	83 ec 18             	sub    $0x18,%esp
  101899:	83 ec 0c             	sub    $0xc,%esp
  10189c:	6a 21                	push   $0x21
  10189e:	e8 19 f2 ff ff       	call   100abc <inportb>
  1018a3:	83 c4 10             	add    $0x10,%esp
  1018a6:	88 45 f7             	mov    %al,-0x9(%ebp)
  1018a9:	83 ec 0c             	sub    $0xc,%esp
  1018ac:	68 a1 00 00 00       	push   $0xa1
  1018b1:	e8 06 f2 ff ff       	call   100abc <inportb>
  1018b6:	83 c4 10             	add    $0x10,%esp
  1018b9:	88 45 f6             	mov    %al,-0xa(%ebp)
  1018bc:	83 ec 08             	sub    $0x8,%esp
  1018bf:	6a 11                	push   $0x11
  1018c1:	6a 20                	push   $0x20
  1018c3:	e8 11 f2 ff ff       	call   100ad9 <outportb>
  1018c8:	83 c4 10             	add    $0x10,%esp
  1018cb:	83 ec 08             	sub    $0x8,%esp
  1018ce:	6a 11                	push   $0x11
  1018d0:	68 a0 00 00 00       	push   $0xa0
  1018d5:	e8 ff f1 ff ff       	call   100ad9 <outportb>
  1018da:	83 c4 10             	add    $0x10,%esp
  1018dd:	83 ec 08             	sub    $0x8,%esp
  1018e0:	6a 20                	push   $0x20
  1018e2:	6a 21                	push   $0x21
  1018e4:	e8 f0 f1 ff ff       	call   100ad9 <outportb>
  1018e9:	83 c4 10             	add    $0x10,%esp
  1018ec:	83 ec 08             	sub    $0x8,%esp
  1018ef:	6a 28                	push   $0x28
  1018f1:	68 a1 00 00 00       	push   $0xa1
  1018f6:	e8 de f1 ff ff       	call   100ad9 <outportb>
  1018fb:	83 c4 10             	add    $0x10,%esp
  1018fe:	83 ec 08             	sub    $0x8,%esp
  101901:	6a 04                	push   $0x4
  101903:	6a 21                	push   $0x21
  101905:	e8 cf f1 ff ff       	call   100ad9 <outportb>
  10190a:	83 c4 10             	add    $0x10,%esp
  10190d:	83 ec 08             	sub    $0x8,%esp
  101910:	6a 02                	push   $0x2
  101912:	68 a1 00 00 00       	push   $0xa1
  101917:	e8 bd f1 ff ff       	call   100ad9 <outportb>
  10191c:	83 c4 10             	add    $0x10,%esp
  10191f:	83 ec 08             	sub    $0x8,%esp
  101922:	6a 01                	push   $0x1
  101924:	6a 21                	push   $0x21
  101926:	e8 ae f1 ff ff       	call   100ad9 <outportb>
  10192b:	83 c4 10             	add    $0x10,%esp
  10192e:	83 ec 08             	sub    $0x8,%esp
  101931:	6a 01                	push   $0x1
  101933:	68 a1 00 00 00       	push   $0xa1
  101938:	e8 9c f1 ff ff       	call   100ad9 <outportb>
  10193d:	83 c4 10             	add    $0x10,%esp
  101940:	83 ec 08             	sub    $0x8,%esp
  101943:	6a 00                	push   $0x0
  101945:	6a 21                	push   $0x21
  101947:	e8 8d f1 ff ff       	call   100ad9 <outportb>
  10194c:	83 c4 10             	add    $0x10,%esp
  10194f:	83 ec 08             	sub    $0x8,%esp
  101952:	6a 00                	push   $0x0
  101954:	68 a1 00 00 00       	push   $0xa1
  101959:	e8 7b f1 ff ff       	call   100ad9 <outportb>
  10195e:	83 c4 10             	add    $0x10,%esp
  101961:	90                   	nop
  101962:	c9                   	leave  
  101963:	c3                   	ret    

00101964 <pic8259_eoi>:
  101964:	55                   	push   %ebp
  101965:	89 e5                	mov    %esp,%ebp
  101967:	83 ec 18             	sub    $0x18,%esp
  10196a:	8b 45 08             	mov    0x8(%ebp),%eax
  10196d:	88 45 f4             	mov    %al,-0xc(%ebp)
  101970:	80 7d f4 27          	cmpb   $0x27,-0xc(%ebp)
  101974:	76 12                	jbe    101988 <pic8259_eoi+0x24>
  101976:	83 ec 08             	sub    $0x8,%esp
  101979:	6a 20                	push   $0x20
  10197b:	68 a0 00 00 00       	push   $0xa0
  101980:	e8 54 f1 ff ff       	call   100ad9 <outportb>
  101985:	83 c4 10             	add    $0x10,%esp
  101988:	83 ec 08             	sub    $0x8,%esp
  10198b:	6a 20                	push   $0x20
  10198d:	6a 20                	push   $0x20
  10198f:	e8 45 f1 ff ff       	call   100ad9 <outportb>
  101994:	83 c4 10             	add    $0x10,%esp
  101997:	90                   	nop
  101998:	c9                   	leave  
  101999:	c3                   	ret    

0010199a <fat_list_init>:
  10199a:	55                   	push   %ebp
  10199b:	89 e5                	mov    %esp,%ebp
  10199d:	8b 45 08             	mov    0x8(%ebp),%eax
  1019a0:	c7 40 04 00 00 00 00 	movl   $0x0,0x4(%eax)
  1019a7:	8b 45 08             	mov    0x8(%ebp),%eax
  1019aa:	8b 50 04             	mov    0x4(%eax),%edx
  1019ad:	8b 45 08             	mov    0x8(%ebp),%eax
  1019b0:	89 10                	mov    %edx,(%eax)
  1019b2:	90                   	nop
  1019b3:	5d                   	pop    %ebp
  1019b4:	c3                   	ret    

001019b5 <fat_list_remove>:
  1019b5:	55                   	push   %ebp
  1019b6:	89 e5                	mov    %esp,%ebp
  1019b8:	8b 45 0c             	mov    0xc(%ebp),%eax
  1019bb:	8b 00                	mov    (%eax),%eax
  1019bd:	85 c0                	test   %eax,%eax
  1019bf:	75 0d                	jne    1019ce <fat_list_remove+0x19>
  1019c1:	8b 45 0c             	mov    0xc(%ebp),%eax
  1019c4:	8b 50 04             	mov    0x4(%eax),%edx
  1019c7:	8b 45 08             	mov    0x8(%ebp),%eax
  1019ca:	89 10                	mov    %edx,(%eax)
  1019cc:	eb 0e                	jmp    1019dc <fat_list_remove+0x27>
  1019ce:	8b 45 0c             	mov    0xc(%ebp),%eax
  1019d1:	8b 00                	mov    (%eax),%eax
  1019d3:	8b 55 0c             	mov    0xc(%ebp),%edx
  1019d6:	8b 52 04             	mov    0x4(%edx),%edx
  1019d9:	89 50 04             	mov    %edx,0x4(%eax)
  1019dc:	8b 45 0c             	mov    0xc(%ebp),%eax
  1019df:	8b 40 04             	mov    0x4(%eax),%eax
  1019e2:	85 c0                	test   %eax,%eax
  1019e4:	75 0d                	jne    1019f3 <fat_list_remove+0x3e>
  1019e6:	8b 45 0c             	mov    0xc(%ebp),%eax
  1019e9:	8b 10                	mov    (%eax),%edx
  1019eb:	8b 45 08             	mov    0x8(%ebp),%eax
  1019ee:	89 50 04             	mov    %edx,0x4(%eax)
  1019f1:	eb 0d                	jmp    101a00 <fat_list_remove+0x4b>
  1019f3:	8b 45 0c             	mov    0xc(%ebp),%eax
  1019f6:	8b 40 04             	mov    0x4(%eax),%eax
  1019f9:	8b 55 0c             	mov    0xc(%ebp),%edx
  1019fc:	8b 12                	mov    (%edx),%edx
  1019fe:	89 10                	mov    %edx,(%eax)
  101a00:	90                   	nop
  101a01:	5d                   	pop    %ebp
  101a02:	c3                   	ret    

00101a03 <fat_list_insert_after>:
  101a03:	55                   	push   %ebp
  101a04:	89 e5                	mov    %esp,%ebp
  101a06:	8b 45 10             	mov    0x10(%ebp),%eax
  101a09:	8b 55 0c             	mov    0xc(%ebp),%edx
  101a0c:	89 10                	mov    %edx,(%eax)
  101a0e:	8b 45 0c             	mov    0xc(%ebp),%eax
  101a11:	8b 50 04             	mov    0x4(%eax),%edx
  101a14:	8b 45 10             	mov    0x10(%ebp),%eax
  101a17:	89 50 04             	mov    %edx,0x4(%eax)
  101a1a:	8b 45 0c             	mov    0xc(%ebp),%eax
  101a1d:	8b 40 04             	mov    0x4(%eax),%eax
  101a20:	85 c0                	test   %eax,%eax
  101a22:	75 0b                	jne    101a2f <fat_list_insert_after+0x2c>
  101a24:	8b 45 08             	mov    0x8(%ebp),%eax
  101a27:	8b 55 10             	mov    0x10(%ebp),%edx
  101a2a:	89 50 04             	mov    %edx,0x4(%eax)
  101a2d:	eb 0b                	jmp    101a3a <fat_list_insert_after+0x37>
  101a2f:	8b 45 0c             	mov    0xc(%ebp),%eax
  101a32:	8b 40 04             	mov    0x4(%eax),%eax
  101a35:	8b 55 10             	mov    0x10(%ebp),%edx
  101a38:	89 10                	mov    %edx,(%eax)
  101a3a:	8b 45 0c             	mov    0xc(%ebp),%eax
  101a3d:	8b 55 10             	mov    0x10(%ebp),%edx
  101a40:	89 50 04             	mov    %edx,0x4(%eax)
  101a43:	90                   	nop
  101a44:	5d                   	pop    %ebp
  101a45:	c3                   	ret    

00101a46 <fat_list_insert_before>:
  101a46:	55                   	push   %ebp
  101a47:	89 e5                	mov    %esp,%ebp
  101a49:	8b 45 0c             	mov    0xc(%ebp),%eax
  101a4c:	8b 10                	mov    (%eax),%edx
  101a4e:	8b 45 10             	mov    0x10(%ebp),%eax
  101a51:	89 10                	mov    %edx,(%eax)
  101a53:	8b 45 10             	mov    0x10(%ebp),%eax
  101a56:	8b 55 0c             	mov    0xc(%ebp),%edx
  101a59:	89 50 04             	mov    %edx,0x4(%eax)
  101a5c:	8b 45 0c             	mov    0xc(%ebp),%eax
  101a5f:	8b 00                	mov    (%eax),%eax
  101a61:	85 c0                	test   %eax,%eax
  101a63:	75 0a                	jne    101a6f <fat_list_insert_before+0x29>
  101a65:	8b 45 08             	mov    0x8(%ebp),%eax
  101a68:	8b 55 10             	mov    0x10(%ebp),%edx
  101a6b:	89 10                	mov    %edx,(%eax)
  101a6d:	eb 0b                	jmp    101a7a <fat_list_insert_before+0x34>
  101a6f:	8b 45 0c             	mov    0xc(%ebp),%eax
  101a72:	8b 00                	mov    (%eax),%eax
  101a74:	8b 55 10             	mov    0x10(%ebp),%edx
  101a77:	89 50 04             	mov    %edx,0x4(%eax)
  101a7a:	8b 45 0c             	mov    0xc(%ebp),%eax
  101a7d:	8b 55 10             	mov    0x10(%ebp),%edx
  101a80:	89 10                	mov    %edx,(%eax)
  101a82:	90                   	nop
  101a83:	5d                   	pop    %ebp
  101a84:	c3                   	ret    

00101a85 <fat_list_insert_first>:
  101a85:	55                   	push   %ebp
  101a86:	89 e5                	mov    %esp,%ebp
  101a88:	8b 45 08             	mov    0x8(%ebp),%eax
  101a8b:	8b 00                	mov    (%eax),%eax
  101a8d:	85 c0                	test   %eax,%eax
  101a8f:	75 26                	jne    101ab7 <fat_list_insert_first+0x32>
  101a91:	8b 45 08             	mov    0x8(%ebp),%eax
  101a94:	8b 55 0c             	mov    0xc(%ebp),%edx
  101a97:	89 10                	mov    %edx,(%eax)
  101a99:	8b 45 08             	mov    0x8(%ebp),%eax
  101a9c:	8b 55 0c             	mov    0xc(%ebp),%edx
  101a9f:	89 50 04             	mov    %edx,0x4(%eax)
  101aa2:	8b 45 0c             	mov    0xc(%ebp),%eax
  101aa5:	c7 00 00 00 00 00    	movl   $0x0,(%eax)
  101aab:	8b 45 0c             	mov    0xc(%ebp),%eax
  101aae:	c7 40 04 00 00 00 00 	movl   $0x0,0x4(%eax)
  101ab5:	eb 14                	jmp    101acb <fat_list_insert_first+0x46>
  101ab7:	8b 45 08             	mov    0x8(%ebp),%eax
  101aba:	8b 00                	mov    (%eax),%eax
  101abc:	ff 75 0c             	push   0xc(%ebp)
  101abf:	50                   	push   %eax
  101ac0:	ff 75 08             	push   0x8(%ebp)
  101ac3:	e8 7e ff ff ff       	call   101a46 <fat_list_insert_before>
  101ac8:	83 c4 0c             	add    $0xc,%esp
  101acb:	90                   	nop
  101acc:	c9                   	leave  
  101acd:	c3                   	ret    

00101ace <fat_list_insert_last>:
  101ace:	55                   	push   %ebp
  101acf:	89 e5                	mov    %esp,%ebp
  101ad1:	8b 45 08             	mov    0x8(%ebp),%eax
  101ad4:	8b 40 04             	mov    0x4(%eax),%eax
  101ad7:	85 c0                	test   %eax,%eax
  101ad9:	75 10                	jne    101aeb <fat_list_insert_last+0x1d>
  101adb:	ff 75 0c             	push   0xc(%ebp)
  101ade:	ff 75 08             	push   0x8(%ebp)
  101ae1:	e8 9f ff ff ff       	call   101a85 <fat_list_insert_first>
  101ae6:	83 c4 08             	add    $0x8,%esp
  101ae9:	eb 15                	jmp    101b00 <fat_list_insert_last+0x32>
  101aeb:	8b 45 08             	mov    0x8(%ebp),%eax
  101aee:	8b 40 04             	mov    0x4(%eax),%eax
  101af1:	ff 75 0c             	push   0xc(%ebp)
  101af4:	50                   	push   %eax
  101af5:	ff 75 08             	push   0x8(%ebp)
  101af8:	e8 06 ff ff ff       	call   101a03 <fat_list_insert_after>
  101afd:	83 c4 0c             	add    $0xc,%esp
  101b00:	90                   	nop
  101b01:	c9                   	leave  
  101b02:	c3                   	ret    

00101b03 <fat_list_is_empty>:
  101b03:	55                   	push   %ebp
  101b04:	89 e5                	mov    %esp,%ebp
  101b06:	8b 45 08             	mov    0x8(%ebp),%eax
  101b09:	8b 00                	mov    (%eax),%eax
  101b0b:	85 c0                	test   %eax,%eax
  101b0d:	0f 94 c0             	sete   %al
  101b10:	0f b6 c0             	movzbl %al,%eax
  101b13:	5d                   	pop    %ebp
  101b14:	c3                   	ret    

00101b15 <fat_list_pop_head>:
  101b15:	55                   	push   %ebp
  101b16:	89 e5                	mov    %esp,%ebp
  101b18:	83 ec 10             	sub    $0x10,%esp
  101b1b:	8b 45 08             	mov    0x8(%ebp),%eax
  101b1e:	8b 00                	mov    (%eax),%eax
  101b20:	89 45 fc             	mov    %eax,-0x4(%ebp)
  101b23:	83 7d fc 00          	cmpl   $0x0,-0x4(%ebp)
  101b27:	74 0e                	je     101b37 <fat_list_pop_head+0x22>
  101b29:	ff 75 fc             	push   -0x4(%ebp)
  101b2c:	ff 75 08             	push   0x8(%ebp)
  101b2f:	e8 81 fe ff ff       	call   1019b5 <fat_list_remove>
  101b34:	83 c4 08             	add    $0x8,%esp
  101b37:	8b 45 fc             	mov    -0x4(%ebp),%eax
  101b3a:	c9                   	leave  
  101b3b:	c3                   	ret    

00101b3c <InitScheduler>:
  101b3c:	55                   	push   %ebp
  101b3d:	89 e5                	mov    %esp,%ebp
  101b3f:	83 ec 18             	sub    $0x18,%esp
  101b42:	c7 45 f4 00 00 00 00 	movl   $0x0,-0xc(%ebp)
  101b49:	eb 15                	jmp    101b60 <InitScheduler+0x24>
  101b4b:	8b 45 f4             	mov    -0xc(%ebp),%eax
  101b4e:	c1 e0 07             	shl    $0x7,%eax
  101b51:	05 d0 ee 13 00       	add    $0x13eed0,%eax
  101b56:	c7 00 00 00 00 00    	movl   $0x0,(%eax)
  101b5c:	83 45 f4 01          	addl   $0x1,-0xc(%ebp)
  101b60:	81 7d f4 ff 00 00 00 	cmpl   $0xff,-0xc(%ebp)
  101b67:	7e e2                	jle    101b4b <InitScheduler+0xf>
  101b69:	c7 05 d0 ee 13 00 01 	movl   $0x1,0x13eed0
  101b70:	00 00 00 
  101b73:	c7 05 c0 ee 13 00 00 	movl   $0x0,0x13eec0
  101b7a:	00 00 00 
  101b7d:	e8 b7 28 02 00       	call   124439 <GetCR3>
  101b82:	a3 c4 ee 13 00       	mov    %eax,0x13eec4
  101b87:	c7 05 cc ee 13 00 00 	movl   $0x0,0x13eecc
  101b8e:	00 00 00 
  101b91:	c7 05 c8 ee 13 00 00 	movl   $0x0,0x13eec8
  101b98:	00 00 00 
  101b9b:	c7 05 d8 ee 13 00 00 	movl   $0x0,0x13eed8
  101ba2:	00 00 00 
  101ba5:	c7 05 c8 6e 14 00 c0 	movl   $0x13eec0,0x146ec8
  101bac:	ee 13 00 
  101baf:	a1 c8 6e 14 00       	mov    0x146ec8,%eax
  101bb4:	a3 d0 6e 14 00       	mov    %eax,0x146ed0
  101bb9:	c7 05 c4 6e 14 00 00 	movl   $0x0,0x146ec4
  101bc0:	00 00 00 
  101bc3:	c7 05 a4 ee 13 00 00 	movl   $0x0,0x13eea4
  101bca:	00 00 00 
  101bcd:	c7 05 d4 6e 14 00 00 	movl   $0x0,0x146ed4
  101bd4:	00 00 00 
  101bd7:	c7 05 a8 ee 13 00 00 	movl   $0x0,0x13eea8
  101bde:	00 00 00 
  101be1:	c7 05 a0 ee 13 00 00 	movl   $0x0,0x13eea0
  101be8:	00 00 00 
  101beb:	c7 05 cc 6e 14 00 00 	movl   $0x0,0x146ecc
  101bf2:	00 00 00 
  101bf5:	e8 ff 05 00 00       	call   1021f9 <GetCurrentCounter>
  101bfa:	a3 c0 6e 14 00       	mov    %eax,0x146ec0
  101bff:	90                   	nop
  101c00:	c9                   	leave  
  101c01:	c3                   	ret    

00101c02 <PcbAlloc>:
  101c02:	55                   	push   %ebp
  101c03:	89 e5                	mov    %esp,%ebp
  101c05:	83 ec 10             	sub    $0x10,%esp
  101c08:	c7 45 fc 00 00 00 00 	movl   $0x0,-0x4(%ebp)
  101c0f:	eb 4d                	jmp    101c5e <PcbAlloc+0x5c>
  101c11:	8b 45 fc             	mov    -0x4(%ebp),%eax
  101c14:	c1 e0 07             	shl    $0x7,%eax
  101c17:	05 d0 ee 13 00       	add    $0x13eed0,%eax
  101c1c:	8b 00                	mov    (%eax),%eax
  101c1e:	85 c0                	test   %eax,%eax
  101c20:	75 38                	jne    101c5a <PcbAlloc+0x58>
  101c22:	8b 45 fc             	mov    -0x4(%ebp),%eax
  101c25:	c1 e0 07             	shl    $0x7,%eax
  101c28:	05 d0 ee 13 00       	add    $0x13eed0,%eax
  101c2d:	c7 00 01 00 00 00    	movl   $0x1,(%eax)
  101c33:	8b 45 fc             	mov    -0x4(%ebp),%eax
  101c36:	05 81 01 00 00       	add    $0x181,%eax
  101c3b:	c1 e0 0c             	shl    $0xc,%eax
  101c3e:	89 c2                	mov    %eax,%edx
  101c40:	8b 45 fc             	mov    -0x4(%ebp),%eax
  101c43:	c1 e0 07             	shl    $0x7,%eax
  101c46:	05 c0 ee 13 00       	add    $0x13eec0,%eax
  101c4b:	89 10                	mov    %edx,(%eax)
  101c4d:	8b 45 fc             	mov    -0x4(%ebp),%eax
  101c50:	c1 e0 07             	shl    $0x7,%eax
  101c53:	05 c0 ee 13 00       	add    $0x13eec0,%eax
  101c58:	eb 12                	jmp    101c6c <PcbAlloc+0x6a>
  101c5a:	83 45 fc 01          	addl   $0x1,-0x4(%ebp)
  101c5e:	81 7d fc ff 00 00 00 	cmpl   $0xff,-0x4(%ebp)
  101c65:	7e aa                	jle    101c11 <PcbAlloc+0xf>
  101c67:	b8 00 00 00 00       	mov    $0x0,%eax
  101c6c:	c9                   	leave  
  101c6d:	c3                   	ret    

00101c6e <PcbFree>:
  101c6e:	55                   	push   %ebp
  101c6f:	89 e5                	mov    %esp,%ebp
  101c71:	81 7d 08 c0 ee 13 00 	cmpl   $0x13eec0,0x8(%ebp)
  101c78:	72 15                	jb     101c8f <PcbFree+0x21>
  101c7a:	81 7d 08 c0 6e 14 00 	cmpl   $0x146ec0,0x8(%ebp)
  101c81:	73 0c                	jae    101c8f <PcbFree+0x21>
  101c83:	8b 45 08             	mov    0x8(%ebp),%eax
  101c86:	c7 40 10 00 00 00 00 	movl   $0x0,0x10(%eax)
  101c8d:	eb 01                	jmp    101c90 <PcbFree+0x22>
  101c8f:	90                   	nop
  101c90:	5d                   	pop    %ebp
  101c91:	c3                   	ret    

00101c92 <ProcessStartup>:
  101c92:	55                   	push   %ebp
  101c93:	89 e5                	mov    %esp,%ebp
  101c95:	83 ec 08             	sub    $0x8,%esp
  101c98:	e8 67 02 00 00       	call   101f04 <UnlockScheduler>
  101c9d:	90                   	nop
  101c9e:	c9                   	leave  
  101c9f:	c3                   	ret    

00101ca0 <AddReady>:
  101ca0:	55                   	push   %ebp
  101ca1:	89 e5                	mov    %esp,%ebp
  101ca3:	83 7d 08 00          	cmpl   $0x0,0x8(%ebp)
  101ca7:	74 46                	je     101cef <AddReady+0x4f>
  101ca9:	8b 45 08             	mov    0x8(%ebp),%eax
  101cac:	c7 40 0c 01 00 00 00 	movl   $0x1,0xc(%eax)
  101cb3:	8b 45 08             	mov    0x8(%ebp),%eax
  101cb6:	c7 40 08 00 00 00 00 	movl   $0x0,0x8(%eax)
  101cbd:	a1 c4 6e 14 00       	mov    0x146ec4,%eax
  101cc2:	85 c0                	test   %eax,%eax
  101cc4:	75 14                	jne    101cda <AddReady+0x3a>
  101cc6:	8b 45 08             	mov    0x8(%ebp),%eax
  101cc9:	a3 a4 ee 13 00       	mov    %eax,0x13eea4
  101cce:	a1 a4 ee 13 00       	mov    0x13eea4,%eax
  101cd3:	a3 c4 6e 14 00       	mov    %eax,0x146ec4
  101cd8:	eb 16                	jmp    101cf0 <AddReady+0x50>
  101cda:	a1 a4 ee 13 00       	mov    0x13eea4,%eax
  101cdf:	8b 55 08             	mov    0x8(%ebp),%edx
  101ce2:	89 50 08             	mov    %edx,0x8(%eax)
  101ce5:	8b 45 08             	mov    0x8(%ebp),%eax
  101ce8:	a3 a4 ee 13 00       	mov    %eax,0x13eea4
  101ced:	eb 01                	jmp    101cf0 <AddReady+0x50>
  101cef:	90                   	nop
  101cf0:	5d                   	pop    %ebp
  101cf1:	c3                   	ret    

00101cf2 <NextReady>:
  101cf2:	55                   	push   %ebp
  101cf3:	89 e5                	mov    %esp,%ebp
  101cf5:	83 ec 10             	sub    $0x10,%esp
  101cf8:	a1 c4 6e 14 00       	mov    0x146ec4,%eax
  101cfd:	85 c0                	test   %eax,%eax
  101cff:	75 07                	jne    101d08 <NextReady+0x16>
  101d01:	b8 00 00 00 00       	mov    $0x0,%eax
  101d06:	eb 35                	jmp    101d3d <NextReady+0x4b>
  101d08:	a1 c4 6e 14 00       	mov    0x146ec4,%eax
  101d0d:	89 45 fc             	mov    %eax,-0x4(%ebp)
  101d10:	a1 c4 6e 14 00       	mov    0x146ec4,%eax
  101d15:	8b 40 08             	mov    0x8(%eax),%eax
  101d18:	a3 c4 6e 14 00       	mov    %eax,0x146ec4
  101d1d:	a1 c4 6e 14 00       	mov    0x146ec4,%eax
  101d22:	85 c0                	test   %eax,%eax
  101d24:	75 0a                	jne    101d30 <NextReady+0x3e>
  101d26:	a1 c4 6e 14 00       	mov    0x146ec4,%eax
  101d2b:	a3 a4 ee 13 00       	mov    %eax,0x13eea4
  101d30:	8b 45 fc             	mov    -0x4(%ebp),%eax
  101d33:	c7 40 08 00 00 00 00 	movl   $0x0,0x8(%eax)
  101d3a:	8b 45 fc             	mov    -0x4(%ebp),%eax
  101d3d:	c9                   	leave  
  101d3e:	c3                   	ret    

00101d3f <CreateProcess>:
  101d3f:	55                   	push   %ebp
  101d40:	89 e5                	mov    %esp,%ebp
  101d42:	83 ec 18             	sub    $0x18,%esp
  101d45:	e8 b8 fe ff ff       	call   101c02 <PcbAlloc>
  101d4a:	89 45 f4             	mov    %eax,-0xc(%ebp)
  101d4d:	83 7d f4 00          	cmpl   $0x0,-0xc(%ebp)
  101d51:	75 08                	jne    101d5b <CreateProcess+0x1c>
  101d53:	8b 45 f4             	mov    -0xc(%ebp),%eax
  101d56:	e9 9a 00 00 00       	jmp    101df5 <CreateProcess+0xb6>
  101d5b:	8b 45 f4             	mov    -0xc(%ebp),%eax
  101d5e:	8b 00                	mov    (%eax),%eax
  101d60:	89 45 f0             	mov    %eax,-0x10(%ebp)
  101d63:	83 6d f0 04          	subl   $0x4,-0x10(%ebp)
  101d67:	8b 55 08             	mov    0x8(%ebp),%edx
  101d6a:	8b 45 f0             	mov    -0x10(%ebp),%eax
  101d6d:	89 10                	mov    %edx,(%eax)
  101d6f:	83 6d f0 04          	subl   $0x4,-0x10(%ebp)
  101d73:	ba 92 1c 10 00       	mov    $0x101c92,%edx
  101d78:	8b 45 f0             	mov    -0x10(%ebp),%eax
  101d7b:	89 10                	mov    %edx,(%eax)
  101d7d:	83 6d f0 04          	subl   $0x4,-0x10(%ebp)
  101d81:	8b 45 f0             	mov    -0x10(%ebp),%eax
  101d84:	c7 00 00 00 00 00    	movl   $0x0,(%eax)
  101d8a:	83 6d f0 04          	subl   $0x4,-0x10(%ebp)
  101d8e:	8b 45 f0             	mov    -0x10(%ebp),%eax
  101d91:	c7 00 00 00 00 00    	movl   $0x0,(%eax)
  101d97:	83 6d f0 04          	subl   $0x4,-0x10(%ebp)
  101d9b:	8b 45 f0             	mov    -0x10(%ebp),%eax
  101d9e:	c7 00 00 00 00 00    	movl   $0x0,(%eax)
  101da4:	83 6d f0 04          	subl   $0x4,-0x10(%ebp)
  101da8:	8b 45 f0             	mov    -0x10(%ebp),%eax
  101dab:	c7 00 00 00 00 00    	movl   $0x0,(%eax)
  101db1:	8b 55 f0             	mov    -0x10(%ebp),%edx
  101db4:	8b 45 f4             	mov    -0xc(%ebp),%eax
  101db7:	89 10                	mov    %edx,(%eax)
  101db9:	e8 7b 26 02 00       	call   124439 <GetCR3>
  101dbe:	89 c2                	mov    %eax,%edx
  101dc0:	8b 45 f4             	mov    -0xc(%ebp),%eax
  101dc3:	89 50 04             	mov    %edx,0x4(%eax)
  101dc6:	8b 45 f4             	mov    -0xc(%ebp),%eax
  101dc9:	c7 40 14 ff ff ff ff 	movl   $0xffffffff,0x14(%eax)
  101dd0:	8b 45 f4             	mov    -0xc(%ebp),%eax
  101dd3:	c7 40 18 00 00 00 00 	movl   $0x0,0x18(%eax)
  101dda:	e8 42 01 00 00       	call   101f21 <LockAndPostpone>
  101ddf:	83 ec 0c             	sub    $0xc,%esp
  101de2:	ff 75 f4             	push   -0xc(%ebp)
  101de5:	e8 b6 fe ff ff       	call   101ca0 <AddReady>
  101dea:	83 c4 10             	add    $0x10,%esp
  101ded:	e8 47 01 00 00       	call   101f39 <UnlockAndSchedule>
  101df2:	8b 45 f4             	mov    -0xc(%ebp),%eax
  101df5:	c9                   	leave  
  101df6:	c3                   	ret    

00101df7 <Schedule>:
  101df7:	55                   	push   %ebp
  101df8:	89 e5                	mov    %esp,%ebp
  101dfa:	83 ec 18             	sub    $0x18,%esp
  101dfd:	a1 0c e0 12 00       	mov    0x12e00c,%eax
  101e02:	85 c0                	test   %eax,%eax
  101e04:	74 0c                	je     101e12 <Schedule+0x1b>
  101e06:	c6 05 10 e0 12 00 01 	movb   $0x1,0x12e010
  101e0d:	e9 84 00 00 00       	jmp    101e96 <Schedule+0x9f>
  101e12:	e8 db fe ff ff       	call   101cf2 <NextReady>
  101e17:	89 45 f4             	mov    %eax,-0xc(%ebp)
  101e1a:	83 7d f4 00          	cmpl   $0x0,-0xc(%ebp)
  101e1e:	74 1a                	je     101e3a <Schedule+0x43>
  101e20:	8b 45 f4             	mov    -0xc(%ebp),%eax
  101e23:	c7 40 18 01 00 00 00 	movl   $0x1,0x18(%eax)
  101e2a:	83 ec 0c             	sub    $0xc,%esp
  101e2d:	ff 75 f4             	push   -0xc(%ebp)
  101e30:	e8 ab 25 02 00       	call   1243e0 <SwitchToTask>
  101e35:	83 c4 10             	add    $0x10,%esp
  101e38:	eb 5c                	jmp    101e96 <Schedule+0x9f>
  101e3a:	a1 c8 6e 14 00       	mov    0x146ec8,%eax
  101e3f:	8b 40 0c             	mov    0xc(%eax),%eax
  101e42:	85 c0                	test   %eax,%eax
  101e44:	74 4f                	je     101e95 <Schedule+0x9e>
  101e46:	a1 c8 6e 14 00       	mov    0x146ec8,%eax
  101e4b:	89 45 f0             	mov    %eax,-0x10(%ebp)
  101e4e:	c7 05 c8 6e 14 00 00 	movl   $0x0,0x146ec8
  101e55:	00 00 00 
  101e58:	fb                   	sti    
  101e59:	f4                   	hlt    
  101e5a:	fa                   	cli    
  101e5b:	e8 92 fe ff ff       	call   101cf2 <NextReady>
  101e60:	89 45 f4             	mov    %eax,-0xc(%ebp)
  101e63:	83 7d f4 00          	cmpl   $0x0,-0xc(%ebp)
  101e67:	74 ef                	je     101e58 <Schedule+0x61>
  101e69:	8b 45 f0             	mov    -0x10(%ebp),%eax
  101e6c:	a3 c8 6e 14 00       	mov    %eax,0x146ec8
  101e71:	8b 45 f4             	mov    -0xc(%ebp),%eax
  101e74:	c7 40 18 01 00 00 00 	movl   $0x1,0x18(%eax)
  101e7b:	a1 c8 6e 14 00       	mov    0x146ec8,%eax
  101e80:	39 45 f4             	cmp    %eax,-0xc(%ebp)
  101e83:	74 11                	je     101e96 <Schedule+0x9f>
  101e85:	83 ec 0c             	sub    $0xc,%esp
  101e88:	ff 75 f4             	push   -0xc(%ebp)
  101e8b:	e8 50 25 02 00       	call   1243e0 <SwitchToTask>
  101e90:	83 c4 10             	add    $0x10,%esp
  101e93:	eb 01                	jmp    101e96 <Schedule+0x9f>
  101e95:	90                   	nop
  101e96:	c9                   	leave  
  101e97:	c3                   	ret    

00101e98 <UpdateTimeUsed>:
  101e98:	55                   	push   %ebp
  101e99:	89 e5                	mov    %esp,%ebp
  101e9b:	83 ec 18             	sub    $0x18,%esp
  101e9e:	a1 c0 6e 14 00       	mov    0x146ec0,%eax
  101ea3:	89 45 f4             	mov    %eax,-0xc(%ebp)
  101ea6:	e8 4e 03 00 00       	call   1021f9 <GetCurrentCounter>
  101eab:	a3 c0 6e 14 00       	mov    %eax,0x146ec0
  101eb0:	a1 c8 6e 14 00       	mov    0x146ec8,%eax
  101eb5:	85 c0                	test   %eax,%eax
  101eb7:	75 18                	jne    101ed1 <UpdateTimeUsed+0x39>
  101eb9:	a1 c0 6e 14 00       	mov    0x146ec0,%eax
  101ebe:	2b 45 f4             	sub    -0xc(%ebp),%eax
  101ec1:	89 c2                	mov    %eax,%edx
  101ec3:	a1 08 e0 12 00       	mov    0x12e008,%eax
  101ec8:	01 d0                	add    %edx,%eax
  101eca:	a3 08 e0 12 00       	mov    %eax,0x12e008
  101ecf:	eb 1c                	jmp    101eed <UpdateTimeUsed+0x55>
  101ed1:	a1 c8 6e 14 00       	mov    0x146ec8,%eax
  101ed6:	8b 48 10             	mov    0x10(%eax),%ecx
  101ed9:	a1 c0 6e 14 00       	mov    0x146ec0,%eax
  101ede:	2b 45 f4             	sub    -0xc(%ebp),%eax
  101ee1:	89 c2                	mov    %eax,%edx
  101ee3:	a1 c8 6e 14 00       	mov    0x146ec8,%eax
  101ee8:	01 ca                	add    %ecx,%edx
  101eea:	89 50 10             	mov    %edx,0x10(%eax)
  101eed:	90                   	nop
  101eee:	c9                   	leave  
  101eef:	c3                   	ret    

00101ef0 <LockScheduler>:
  101ef0:	55                   	push   %ebp
  101ef1:	89 e5                	mov    %esp,%ebp
  101ef3:	fa                   	cli    
  101ef4:	a1 14 e0 12 00       	mov    0x12e014,%eax
  101ef9:	83 c0 01             	add    $0x1,%eax
  101efc:	a3 14 e0 12 00       	mov    %eax,0x12e014
  101f01:	90                   	nop
  101f02:	5d                   	pop    %ebp
  101f03:	c3                   	ret    

00101f04 <UnlockScheduler>:
  101f04:	55                   	push   %ebp
  101f05:	89 e5                	mov    %esp,%ebp
  101f07:	a1 14 e0 12 00       	mov    0x12e014,%eax
  101f0c:	83 e8 01             	sub    $0x1,%eax
  101f0f:	a3 14 e0 12 00       	mov    %eax,0x12e014
  101f14:	a1 14 e0 12 00       	mov    0x12e014,%eax
  101f19:	85 c0                	test   %eax,%eax
  101f1b:	75 01                	jne    101f1e <UnlockScheduler+0x1a>
  101f1d:	fb                   	sti    
  101f1e:	90                   	nop
  101f1f:	5d                   	pop    %ebp
  101f20:	c3                   	ret    

00101f21 <LockAndPostpone>:
  101f21:	55                   	push   %ebp
  101f22:	89 e5                	mov    %esp,%ebp
  101f24:	e8 c7 ff ff ff       	call   101ef0 <LockScheduler>
  101f29:	a1 0c e0 12 00       	mov    0x12e00c,%eax
  101f2e:	83 c0 01             	add    $0x1,%eax
  101f31:	a3 0c e0 12 00       	mov    %eax,0x12e00c
  101f36:	90                   	nop
  101f37:	5d                   	pop    %ebp
  101f38:	c3                   	ret    

00101f39 <UnlockAndSchedule>:
  101f39:	55                   	push   %ebp
  101f3a:	89 e5                	mov    %esp,%ebp
  101f3c:	83 ec 08             	sub    $0x8,%esp
  101f3f:	a1 0c e0 12 00       	mov    0x12e00c,%eax
  101f44:	83 e8 01             	sub    $0x1,%eax
  101f47:	a3 0c e0 12 00       	mov    %eax,0x12e00c
  101f4c:	a1 0c e0 12 00       	mov    0x12e00c,%eax
  101f51:	85 c0                	test   %eax,%eax
  101f53:	75 17                	jne    101f6c <UnlockAndSchedule+0x33>
  101f55:	0f b6 05 10 e0 12 00 	movzbl 0x12e010,%eax
  101f5c:	84 c0                	test   %al,%al
  101f5e:	74 0c                	je     101f6c <UnlockAndSchedule+0x33>
  101f60:	c6 05 10 e0 12 00 00 	movb   $0x0,0x12e010
  101f67:	e8 8b fe ff ff       	call   101df7 <Schedule>
  101f6c:	e8 93 ff ff ff       	call   101f04 <UnlockScheduler>
  101f71:	90                   	nop
  101f72:	c9                   	leave  
  101f73:	c3                   	ret    

00101f74 <BlockProcess>:
  101f74:	55                   	push   %ebp
  101f75:	89 e5                	mov    %esp,%ebp
  101f77:	83 ec 08             	sub    $0x8,%esp
  101f7a:	e8 a2 ff ff ff       	call   101f21 <LockAndPostpone>
  101f7f:	a1 c8 6e 14 00       	mov    0x146ec8,%eax
  101f84:	8b 55 08             	mov    0x8(%ebp),%edx
  101f87:	89 50 0c             	mov    %edx,0xc(%eax)
  101f8a:	e8 68 fe ff ff       	call   101df7 <Schedule>
  101f8f:	e8 a5 ff ff ff       	call   101f39 <UnlockAndSchedule>
  101f94:	90                   	nop
  101f95:	c9                   	leave  
  101f96:	c3                   	ret    

00101f97 <UnblockProcess>:
  101f97:	55                   	push   %ebp
  101f98:	89 e5                	mov    %esp,%ebp
  101f9a:	83 ec 08             	sub    $0x8,%esp
  101f9d:	e8 7f ff ff ff       	call   101f21 <LockAndPostpone>
  101fa2:	ff 75 08             	push   0x8(%ebp)
  101fa5:	e8 f6 fc ff ff       	call   101ca0 <AddReady>
  101faa:	83 c4 04             	add    $0x4,%esp
  101fad:	e8 87 ff ff ff       	call   101f39 <UnlockAndSchedule>
  101fb2:	90                   	nop
  101fb3:	c9                   	leave  
  101fb4:	c3                   	ret    

00101fb5 <AddSleeping>:
  101fb5:	55                   	push   %ebp
  101fb6:	89 e5                	mov    %esp,%ebp
  101fb8:	83 7d 08 00          	cmpl   $0x0,0x8(%ebp)
  101fbc:	74 3c                	je     101ffa <AddSleeping+0x45>
  101fbe:	8b 45 08             	mov    0x8(%ebp),%eax
  101fc1:	c7 40 0c 03 00 00 00 	movl   $0x3,0xc(%eax)
  101fc8:	a1 d4 6e 14 00       	mov    0x146ed4,%eax
  101fcd:	85 c0                	test   %eax,%eax
  101fcf:	75 14                	jne    101fe5 <AddSleeping+0x30>
  101fd1:	8b 45 08             	mov    0x8(%ebp),%eax
  101fd4:	a3 a8 ee 13 00       	mov    %eax,0x13eea8
  101fd9:	a1 a8 ee 13 00       	mov    0x13eea8,%eax
  101fde:	a3 d4 6e 14 00       	mov    %eax,0x146ed4
  101fe3:	eb 16                	jmp    101ffb <AddSleeping+0x46>
  101fe5:	a1 a8 ee 13 00       	mov    0x13eea8,%eax
  101fea:	8b 55 08             	mov    0x8(%ebp),%edx
  101fed:	89 50 08             	mov    %edx,0x8(%eax)
  101ff0:	8b 45 08             	mov    0x8(%ebp),%eax
  101ff3:	a3 a8 ee 13 00       	mov    %eax,0x13eea8
  101ff8:	eb 01                	jmp    101ffb <AddSleeping+0x46>
  101ffa:	90                   	nop
  101ffb:	5d                   	pop    %ebp
  101ffc:	c3                   	ret    

00101ffd <SleepUntil>:
  101ffd:	55                   	push   %ebp
  101ffe:	89 e5                	mov    %esp,%ebp
  102000:	83 ec 08             	sub    $0x8,%esp
  102003:	e8 19 ff ff ff       	call   101f21 <LockAndPostpone>
  102008:	e8 ec 01 00 00       	call   1021f9 <GetCurrentCounter>
  10200d:	39 45 08             	cmp    %eax,0x8(%ebp)
  102010:	73 07                	jae    102019 <SleepUntil+0x1c>
  102012:	e8 22 ff ff ff       	call   101f39 <UnlockAndSchedule>
  102017:	eb 2e                	jmp    102047 <SleepUntil+0x4a>
  102019:	a1 c8 6e 14 00       	mov    0x146ec8,%eax
  10201e:	8b 55 08             	mov    0x8(%ebp),%edx
  102021:	89 50 14             	mov    %edx,0x14(%eax)
  102024:	a1 c8 6e 14 00       	mov    0x146ec8,%eax
  102029:	83 ec 0c             	sub    $0xc,%esp
  10202c:	50                   	push   %eax
  10202d:	e8 83 ff ff ff       	call   101fb5 <AddSleeping>
  102032:	83 c4 10             	add    $0x10,%esp
  102035:	e8 ff fe ff ff       	call   101f39 <UnlockAndSchedule>
  10203a:	83 ec 0c             	sub    $0xc,%esp
  10203d:	6a 03                	push   $0x3
  10203f:	e8 30 ff ff ff       	call   101f74 <BlockProcess>
  102044:	83 c4 10             	add    $0x10,%esp
  102047:	c9                   	leave  
  102048:	c3                   	ret    

00102049 <IrqTimerHandler>:
  102049:	55                   	push   %ebp
  10204a:	89 e5                	mov    %esp,%ebp
  10204c:	83 ec 18             	sub    $0x18,%esp
  10204f:	a1 d8 6e 14 00       	mov    0x146ed8,%eax
  102054:	83 c0 01             	add    $0x1,%eax
  102057:	a3 d8 6e 14 00       	mov    %eax,0x146ed8
  10205c:	a1 d4 6e 14 00       	mov    0x146ed4,%eax
  102061:	89 45 f0             	mov    %eax,-0x10(%ebp)
  102064:	8b 45 f0             	mov    -0x10(%ebp),%eax
  102067:	89 45 f4             	mov    %eax,-0xc(%ebp)
  10206a:	c7 05 a8 ee 13 00 00 	movl   $0x0,0x13eea8
  102071:	00 00 00 
  102074:	a1 a8 ee 13 00       	mov    0x13eea8,%eax
  102079:	a3 d4 6e 14 00       	mov    %eax,0x146ed4
  10207e:	eb 46                	jmp    1020c6 <IrqTimerHandler+0x7d>
  102080:	8b 45 f4             	mov    -0xc(%ebp),%eax
  102083:	8b 40 08             	mov    0x8(%eax),%eax
  102086:	89 45 f0             	mov    %eax,-0x10(%ebp)
  102089:	8b 45 f4             	mov    -0xc(%ebp),%eax
  10208c:	c7 40 08 00 00 00 00 	movl   $0x0,0x8(%eax)
  102093:	8b 45 f4             	mov    -0xc(%ebp),%eax
  102096:	8b 50 14             	mov    0x14(%eax),%edx
  102099:	a1 d8 6e 14 00       	mov    0x146ed8,%eax
  10209e:	39 c2                	cmp    %eax,%edx
  1020a0:	77 10                	ja     1020b2 <IrqTimerHandler+0x69>
  1020a2:	83 ec 0c             	sub    $0xc,%esp
  1020a5:	ff 75 f4             	push   -0xc(%ebp)
  1020a8:	e8 ea fe ff ff       	call   101f97 <UnblockProcess>
  1020ad:	83 c4 10             	add    $0x10,%esp
  1020b0:	eb 0e                	jmp    1020c0 <IrqTimerHandler+0x77>
  1020b2:	83 ec 0c             	sub    $0xc,%esp
  1020b5:	ff 75 f4             	push   -0xc(%ebp)
  1020b8:	e8 f8 fe ff ff       	call   101fb5 <AddSleeping>
  1020bd:	83 c4 10             	add    $0x10,%esp
  1020c0:	8b 45 f0             	mov    -0x10(%ebp),%eax
  1020c3:	89 45 f4             	mov    %eax,-0xc(%ebp)
  1020c6:	83 7d f4 00          	cmpl   $0x0,-0xc(%ebp)
  1020ca:	75 b4                	jne    102080 <IrqTimerHandler+0x37>
  1020cc:	a1 c8 6e 14 00       	mov    0x146ec8,%eax
  1020d1:	85 c0                	test   %eax,%eax
  1020d3:	74 1f                	je     1020f4 <IrqTimerHandler+0xab>
  1020d5:	a1 c8 6e 14 00       	mov    0x146ec8,%eax
  1020da:	8b 50 18             	mov    0x18(%eax),%edx
  1020dd:	83 ea 01             	sub    $0x1,%edx
  1020e0:	89 50 18             	mov    %edx,0x18(%eax)
  1020e3:	a1 c8 6e 14 00       	mov    0x146ec8,%eax
  1020e8:	8b 40 18             	mov    0x18(%eax),%eax
  1020eb:	85 c0                	test   %eax,%eax
  1020ed:	7f 05                	jg     1020f4 <IrqTimerHandler+0xab>
  1020ef:	e8 03 fd ff ff       	call   101df7 <Schedule>
  1020f4:	90                   	nop
  1020f5:	c9                   	leave  
  1020f6:	c3                   	ret    

001020f7 <AddTerminated>:
  1020f7:	55                   	push   %ebp
  1020f8:	89 e5                	mov    %esp,%ebp
  1020fa:	83 7d 08 00          	cmpl   $0x0,0x8(%ebp)
  1020fe:	74 3c                	je     10213c <AddTerminated+0x45>
  102100:	8b 45 08             	mov    0x8(%ebp),%eax
  102103:	c7 40 0c 03 00 00 00 	movl   $0x3,0xc(%eax)
  10210a:	a1 a0 ee 13 00       	mov    0x13eea0,%eax
  10210f:	85 c0                	test   %eax,%eax
  102111:	75 14                	jne    102127 <AddTerminated+0x30>
  102113:	8b 45 08             	mov    0x8(%ebp),%eax
  102116:	a3 cc 6e 14 00       	mov    %eax,0x146ecc
  10211b:	a1 cc 6e 14 00       	mov    0x146ecc,%eax
  102120:	a3 a0 ee 13 00       	mov    %eax,0x13eea0
  102125:	eb 16                	jmp    10213d <AddTerminated+0x46>
  102127:	a1 cc 6e 14 00       	mov    0x146ecc,%eax
  10212c:	8b 55 08             	mov    0x8(%ebp),%edx
  10212f:	89 50 08             	mov    %edx,0x8(%eax)
  102132:	8b 45 08             	mov    0x8(%ebp),%eax
  102135:	a3 cc 6e 14 00       	mov    %eax,0x146ecc
  10213a:	eb 01                	jmp    10213d <AddTerminated+0x46>
  10213c:	90                   	nop
  10213d:	5d                   	pop    %ebp
  10213e:	c3                   	ret    

0010213f <TerminateProcess>:
  10213f:	55                   	push   %ebp
  102140:	89 e5                	mov    %esp,%ebp
  102142:	83 ec 08             	sub    $0x8,%esp
  102145:	e8 d7 fd ff ff       	call   101f21 <LockAndPostpone>
  10214a:	a1 c8 6e 14 00       	mov    0x146ec8,%eax
  10214f:	50                   	push   %eax
  102150:	e8 a2 ff ff ff       	call   1020f7 <AddTerminated>
  102155:	83 c4 04             	add    $0x4,%esp
  102158:	83 ec 0c             	sub    $0xc,%esp
  10215b:	6a 04                	push   $0x4
  10215d:	e8 12 fe ff ff       	call   101f74 <BlockProcess>
  102162:	83 c4 10             	add    $0x10,%esp
  102165:	a1 d0 6e 14 00       	mov    0x146ed0,%eax
  10216a:	83 ec 0c             	sub    $0xc,%esp
  10216d:	50                   	push   %eax
  10216e:	e8 24 fe ff ff       	call   101f97 <UnblockProcess>
  102173:	83 c4 10             	add    $0x10,%esp
  102176:	e8 be fd ff ff       	call   101f39 <UnlockAndSchedule>
  10217b:	90                   	nop
  10217c:	c9                   	leave  
  10217d:	c3                   	ret    

0010217e <PerformButler>:
  10217e:	55                   	push   %ebp
  10217f:	89 e5                	mov    %esp,%ebp
  102181:	83 ec 18             	sub    $0x18,%esp
  102184:	e8 98 fd ff ff       	call   101f21 <LockAndPostpone>
  102189:	a1 a0 ee 13 00       	mov    0x13eea0,%eax
  10218e:	85 c0                	test   %eax,%eax
  102190:	75 14                	jne    1021a6 <PerformButler+0x28>
  102192:	83 ec 0c             	sub    $0xc,%esp
  102195:	6a 02                	push   $0x2
  102197:	e8 d8 fd ff ff       	call   101f74 <BlockProcess>
  10219c:	83 c4 10             	add    $0x10,%esp
  10219f:	e8 95 fd ff ff       	call   101f39 <UnlockAndSchedule>
  1021a4:	eb 3b                	jmp    1021e1 <PerformButler+0x63>
  1021a6:	a1 a0 ee 13 00       	mov    0x13eea0,%eax
  1021ab:	89 45 f4             	mov    %eax,-0xc(%ebp)
  1021ae:	a1 a0 ee 13 00       	mov    0x13eea0,%eax
  1021b3:	8b 40 08             	mov    0x8(%eax),%eax
  1021b6:	a3 a0 ee 13 00       	mov    %eax,0x13eea0
  1021bb:	a1 a0 ee 13 00       	mov    0x13eea0,%eax
  1021c0:	85 c0                	test   %eax,%eax
  1021c2:	75 0a                	jne    1021ce <PerformButler+0x50>
  1021c4:	a1 a0 ee 13 00       	mov    0x13eea0,%eax
  1021c9:	a3 cc 6e 14 00       	mov    %eax,0x146ecc
  1021ce:	83 ec 0c             	sub    $0xc,%esp
  1021d1:	ff 75 f4             	push   -0xc(%ebp)
  1021d4:	e8 95 fa ff ff       	call   101c6e <PcbFree>
  1021d9:	83 c4 10             	add    $0x10,%esp
  1021dc:	e8 58 fd ff ff       	call   101f39 <UnlockAndSchedule>
  1021e1:	eb a1                	jmp    102184 <PerformButler+0x6>

001021e3 <GetCurrentTask>:
  1021e3:	55                   	push   %ebp
  1021e4:	89 e5                	mov    %esp,%ebp
  1021e6:	a1 c8 6e 14 00       	mov    0x146ec8,%eax
  1021eb:	5d                   	pop    %ebp
  1021ec:	c3                   	ret    

001021ed <SetIdtEntry>:
  1021ed:	55                   	push   %ebp
  1021ee:	89 e5                	mov    %esp,%ebp
  1021f0:	90                   	nop
  1021f1:	5d                   	pop    %ebp
  1021f2:	c3                   	ret    

001021f3 <InitTimer>:
  1021f3:	55                   	push   %ebp
  1021f4:	89 e5                	mov    %esp,%ebp
  1021f6:	90                   	nop
  1021f7:	5d                   	pop    %ebp
  1021f8:	c3                   	ret    

001021f9 <GetCurrentCounter>:
  1021f9:	55                   	push   %ebp
  1021fa:	89 e5                	mov    %esp,%ebp
  1021fc:	a1 d8 6e 14 00       	mov    0x146ed8,%eax
  102201:	5d                   	pop    %ebp
  102202:	c3                   	ret    

00102203 <fat_list_init>:
  102203:	55                   	push   %ebp
  102204:	89 e5                	mov    %esp,%ebp
  102206:	8b 45 08             	mov    0x8(%ebp),%eax
  102209:	c7 40 04 00 00 00 00 	movl   $0x0,0x4(%eax)
  102210:	8b 45 08             	mov    0x8(%ebp),%eax
  102213:	8b 50 04             	mov    0x4(%eax),%edx
  102216:	8b 45 08             	mov    0x8(%ebp),%eax
  102219:	89 10                	mov    %edx,(%eax)
  10221b:	90                   	nop
  10221c:	5d                   	pop    %ebp
  10221d:	c3                   	ret    

0010221e <fat_list_remove>:
  10221e:	55                   	push   %ebp
  10221f:	89 e5                	mov    %esp,%ebp
  102221:	8b 45 0c             	mov    0xc(%ebp),%eax
  102224:	8b 00                	mov    (%eax),%eax
  102226:	85 c0                	test   %eax,%eax
  102228:	75 0d                	jne    102237 <fat_list_remove+0x19>
  10222a:	8b 45 0c             	mov    0xc(%ebp),%eax
  10222d:	8b 50 04             	mov    0x4(%eax),%edx
  102230:	8b 45 08             	mov    0x8(%ebp),%eax
  102233:	89 10                	mov    %edx,(%eax)
  102235:	eb 0e                	jmp    102245 <fat_list_remove+0x27>
  102237:	8b 45 0c             	mov    0xc(%ebp),%eax
  10223a:	8b 00                	mov    (%eax),%eax
  10223c:	8b 55 0c             	mov    0xc(%ebp),%edx
  10223f:	8b 52 04             	mov    0x4(%edx),%edx
  102242:	89 50 04             	mov    %edx,0x4(%eax)
  102245:	8b 45 0c             	mov    0xc(%ebp),%eax
  102248:	8b 40 04             	mov    0x4(%eax),%eax
  10224b:	85 c0                	test   %eax,%eax
  10224d:	75 0d                	jne    10225c <fat_list_remove+0x3e>
  10224f:	8b 45 0c             	mov    0xc(%ebp),%eax
  102252:	8b 10                	mov    (%eax),%edx
  102254:	8b 45 08             	mov    0x8(%ebp),%eax
  102257:	89 50 04             	mov    %edx,0x4(%eax)
  10225a:	eb 0d                	jmp    102269 <fat_list_remove+0x4b>
  10225c:	8b 45 0c             	mov    0xc(%ebp),%eax
  10225f:	8b 40 04             	mov    0x4(%eax),%eax
  102262:	8b 55 0c             	mov    0xc(%ebp),%edx
  102265:	8b 12                	mov    (%edx),%edx
  102267:	89 10                	mov    %edx,(%eax)
  102269:	90                   	nop
  10226a:	5d                   	pop    %ebp
  10226b:	c3                   	ret    

0010226c <fat_list_insert_after>:
  10226c:	55                   	push   %ebp
  10226d:	89 e5                	mov    %esp,%ebp
  10226f:	8b 45 10             	mov    0x10(%ebp),%eax
  102272:	8b 55 0c             	mov    0xc(%ebp),%edx
  102275:	89 10                	mov    %edx,(%eax)
  102277:	8b 45 0c             	mov    0xc(%ebp),%eax
  10227a:	8b 50 04             	mov    0x4(%eax),%edx
  10227d:	8b 45 10             	mov    0x10(%ebp),%eax
  102280:	89 50 04             	mov    %edx,0x4(%eax)
  102283:	8b 45 0c             	mov    0xc(%ebp),%eax
  102286:	8b 40 04             	mov    0x4(%eax),%eax
  102289:	85 c0                	test   %eax,%eax
  10228b:	75 0b                	jne    102298 <fat_list_insert_after+0x2c>
  10228d:	8b 45 08             	mov    0x8(%ebp),%eax
  102290:	8b 55 10             	mov    0x10(%ebp),%edx
  102293:	89 50 04             	mov    %edx,0x4(%eax)
  102296:	eb 0b                	jmp    1022a3 <fat_list_insert_after+0x37>
  102298:	8b 45 0c             	mov    0xc(%ebp),%eax
  10229b:	8b 40 04             	mov    0x4(%eax),%eax
  10229e:	8b 55 10             	mov    0x10(%ebp),%edx
  1022a1:	89 10                	mov    %edx,(%eax)
  1022a3:	8b 45 0c             	mov    0xc(%ebp),%eax
  1022a6:	8b 55 10             	mov    0x10(%ebp),%edx
  1022a9:	89 50 04             	mov    %edx,0x4(%eax)
  1022ac:	90                   	nop
  1022ad:	5d                   	pop    %ebp
  1022ae:	c3                   	ret    

001022af <fat_list_insert_before>:
  1022af:	55                   	push   %ebp
  1022b0:	89 e5                	mov    %esp,%ebp
  1022b2:	8b 45 0c             	mov    0xc(%ebp),%eax
  1022b5:	8b 10                	mov    (%eax),%edx
  1022b7:	8b 45 10             	mov    0x10(%ebp),%eax
  1022ba:	89 10                	mov    %edx,(%eax)
  1022bc:	8b 45 10             	mov    0x10(%ebp),%eax
  1022bf:	8b 55 0c             	mov    0xc(%ebp),%edx
  1022c2:	89 50 04             	mov    %edx,0x4(%eax)
  1022c5:	8b 45 0c             	mov    0xc(%ebp),%eax
  1022c8:	8b 00                	mov    (%eax),%eax
  1022ca:	85 c0                	test   %eax,%eax
  1022cc:	75 0a                	jne    1022d8 <fat_list_insert_before+0x29>
  1022ce:	8b 45 08             	mov    0x8(%ebp),%eax
  1022d1:	8b 55 10             	mov    0x10(%ebp),%edx
  1022d4:	89 10                	mov    %edx,(%eax)
  1022d6:	eb 0b                	jmp    1022e3 <fat_list_insert_before+0x34>
  1022d8:	8b 45 0c             	mov    0xc(%ebp),%eax
  1022db:	8b 00                	mov    (%eax),%eax
  1022dd:	8b 55 10             	mov    0x10(%ebp),%edx
  1022e0:	89 50 04             	mov    %edx,0x4(%eax)
  1022e3:	8b 45 0c             	mov    0xc(%ebp),%eax
  1022e6:	8b 55 10             	mov    0x10(%ebp),%edx
  1022e9:	89 10                	mov    %edx,(%eax)
  1022eb:	90                   	nop
  1022ec:	5d                   	pop    %ebp
  1022ed:	c3                   	ret    

001022ee <fat_list_insert_first>:
  1022ee:	55                   	push   %ebp
  1022ef:	89 e5                	mov    %esp,%ebp
  1022f1:	8b 45 08             	mov    0x8(%ebp),%eax
  1022f4:	8b 00                	mov    (%eax),%eax
  1022f6:	85 c0                	test   %eax,%eax
  1022f8:	75 26                	jne    102320 <fat_list_insert_first+0x32>
  1022fa:	8b 45 08             	mov    0x8(%ebp),%eax
  1022fd:	8b 55 0c             	mov    0xc(%ebp),%edx
  102300:	89 10                	mov    %edx,(%eax)
  102302:	8b 45 08             	mov    0x8(%ebp),%eax
  102305:	8b 55 0c             	mov    0xc(%ebp),%edx
  102308:	89 50 04             	mov    %edx,0x4(%eax)
  10230b:	8b 45 0c             	mov    0xc(%ebp),%eax
  10230e:	c7 00 00 00 00 00    	movl   $0x0,(%eax)
  102314:	8b 45 0c             	mov    0xc(%ebp),%eax
  102317:	c7 40 04 00 00 00 00 	movl   $0x0,0x4(%eax)
  10231e:	eb 14                	jmp    102334 <fat_list_insert_first+0x46>
  102320:	8b 45 08             	mov    0x8(%ebp),%eax
  102323:	8b 00                	mov    (%eax),%eax
  102325:	ff 75 0c             	push   0xc(%ebp)
  102328:	50                   	push   %eax
  102329:	ff 75 08             	push   0x8(%ebp)
  10232c:	e8 7e ff ff ff       	call   1022af <fat_list_insert_before>
  102331:	83 c4 0c             	add    $0xc,%esp
  102334:	90                   	nop
  102335:	c9                   	leave  
  102336:	c3                   	ret    

00102337 <fat_list_insert_last>:
  102337:	55                   	push   %ebp
  102338:	89 e5                	mov    %esp,%ebp
  10233a:	8b 45 08             	mov    0x8(%ebp),%eax
  10233d:	8b 40 04             	mov    0x4(%eax),%eax
  102340:	85 c0                	test   %eax,%eax
  102342:	75 10                	jne    102354 <fat_list_insert_last+0x1d>
  102344:	ff 75 0c             	push   0xc(%ebp)
  102347:	ff 75 08             	push   0x8(%ebp)
  10234a:	e8 9f ff ff ff       	call   1022ee <fat_list_insert_first>
  10234f:	83 c4 08             	add    $0x8,%esp
  102352:	eb 15                	jmp    102369 <fat_list_insert_last+0x32>
  102354:	8b 45 08             	mov    0x8(%ebp),%eax
  102357:	8b 40 04             	mov    0x4(%eax),%eax
  10235a:	ff 75 0c             	push   0xc(%ebp)
  10235d:	50                   	push   %eax
  10235e:	ff 75 08             	push   0x8(%ebp)
  102361:	e8 06 ff ff ff       	call   10226c <fat_list_insert_after>
  102366:	83 c4 0c             	add    $0xc,%esp
  102369:	90                   	nop
  10236a:	c9                   	leave  
  10236b:	c3                   	ret    

0010236c <fat_list_is_empty>:
  10236c:	55                   	push   %ebp
  10236d:	89 e5                	mov    %esp,%ebp
  10236f:	8b 45 08             	mov    0x8(%ebp),%eax
  102372:	8b 00                	mov    (%eax),%eax
  102374:	85 c0                	test   %eax,%eax
  102376:	0f 94 c0             	sete   %al
  102379:	0f b6 c0             	movzbl %al,%eax
  10237c:	5d                   	pop    %ebp
  10237d:	c3                   	ret    

0010237e <fat_list_pop_head>:
  10237e:	55                   	push   %ebp
  10237f:	89 e5                	mov    %esp,%ebp
  102381:	83 ec 10             	sub    $0x10,%esp
  102384:	8b 45 08             	mov    0x8(%ebp),%eax
  102387:	8b 00                	mov    (%eax),%eax
  102389:	89 45 fc             	mov    %eax,-0x4(%ebp)
  10238c:	83 7d fc 00          	cmpl   $0x0,-0x4(%ebp)
  102390:	74 0e                	je     1023a0 <fat_list_pop_head+0x22>
  102392:	ff 75 fc             	push   -0x4(%ebp)
  102395:	ff 75 08             	push   0x8(%ebp)
  102398:	e8 81 fe ff ff       	call   10221e <fat_list_remove>
  10239d:	83 c4 08             	add    $0x8,%esp
  1023a0:	8b 45 fc             	mov    -0x4(%ebp),%eax
  1023a3:	c9                   	leave  
  1023a4:	c3                   	ret    

001023a5 <run_elf>:
  1023a5:	55                   	push   %ebp
  1023a6:	89 e5                	mov    %esp,%ebp
  1023a8:	83 ec 18             	sub    $0x18,%esp
  1023ab:	b8 f0 6e 14 00       	mov    $0x146ef0,%eax
  1023b0:	88 45 ef             	mov    %al,-0x11(%ebp)
  1023b3:	0f b6 45 ef          	movzbl -0x11(%ebp),%eax
  1023b7:	0f b6 c0             	movzbl %al,%eax
  1023ba:	83 ec 04             	sub    $0x4,%esp
  1023bd:	68 00 20 00 00       	push   $0x2000
  1023c2:	6a 00                	push   $0x0
  1023c4:	50                   	push   %eax
  1023c5:	e8 71 0d 02 00       	call   12313b <memset>
  1023ca:	83 c4 10             	add    $0x10,%esp
  1023cd:	8d 45 ef             	lea    -0x11(%ebp),%eax
  1023d0:	89 c4                	mov    %eax,%esp
  1023d2:	8b 45 08             	mov    0x8(%ebp),%eax
  1023d5:	89 45 f4             	mov    %eax,-0xc(%ebp)
  1023d8:	83 ec 08             	sub    $0x8,%esp
  1023db:	ff 75 18             	push   0x18(%ebp)
  1023de:	ff 75 14             	push   0x14(%ebp)
  1023e1:	8b 45 f4             	mov    -0xc(%ebp),%eax
  1023e4:	ff d0                	call   *%eax
  1023e6:	83 c4 10             	add    $0x10,%esp
  1023e9:	c7 45 f0 00 00 00 00 	movl   $0x0,-0x10(%ebp)
  1023f0:	89 c0                	mov    %eax,%eax
  1023f2:	89 45 f0             	mov    %eax,-0x10(%ebp)
  1023f5:	8d 45 ef             	lea    -0x11(%ebp),%eax
  1023f8:	89 c4                	mov    %eax,%esp
  1023fa:	90                   	nop
  1023fb:	c9                   	leave  
  1023fc:	c3                   	ret    

001023fd <check_overlap>:
  1023fd:	55                   	push   %ebp
  1023fe:	89 e5                	mov    %esp,%ebp
  102400:	83 ec 10             	sub    $0x10,%esp
  102403:	8b 45 10             	mov    0x10(%ebp),%eax
  102406:	89 45 fc             	mov    %eax,-0x4(%ebp)
  102409:	8b 45 10             	mov    0x10(%ebp),%eax
  10240c:	0f b7 40 28          	movzwl 0x28(%eax),%eax
  102410:	0f b7 d0             	movzwl %ax,%edx
  102413:	8b 45 fc             	mov    -0x4(%ebp),%eax
  102416:	01 d0                	add    %edx,%eax
  102418:	89 45 f8             	mov    %eax,-0x8(%ebp)
  10241b:	8b 45 f8             	mov    -0x8(%ebp),%eax
  10241e:	3b 45 08             	cmp    0x8(%ebp),%eax
  102421:	72 08                	jb     10242b <check_overlap+0x2e>
  102423:	8b 45 fc             	mov    -0x4(%ebp),%eax
  102426:	3b 45 0c             	cmp    0xc(%ebp),%eax
  102429:	76 07                	jbe    102432 <check_overlap+0x35>
  10242b:	b8 00 00 00 00       	mov    $0x0,%eax
  102430:	eb 05                	jmp    102437 <check_overlap+0x3a>
  102432:	b8 01 00 00 00       	mov    $0x1,%eax
  102437:	c9                   	leave  
  102438:	c3                   	ret    

00102439 <save_register_state>:
  102439:	55                   	push   %ebp
  10243a:	89 e5                	mov    %esp,%ebp
  10243c:	89 e9                	mov    %ebp,%ecx
  10243e:	89 e2                	mov    %esp,%edx
  102440:	8b 45 08             	mov    0x8(%ebp),%eax
  102443:	89 08                	mov    %ecx,(%eax)
  102445:	8b 45 08             	mov    0x8(%ebp),%eax
  102448:	89 50 04             	mov    %edx,0x4(%eax)
  10244b:	90                   	nop
  10244c:	5d                   	pop    %ebp
  10244d:	c3                   	ret    

0010244e <restore_register_state>:
  10244e:	55                   	push   %ebp
  10244f:	89 e5                	mov    %esp,%ebp
  102451:	8b 45 08             	mov    0x8(%ebp),%eax
  102454:	8b 00                	mov    (%eax),%eax
  102456:	8b 55 08             	mov    0x8(%ebp),%edx
  102459:	8b 52 04             	mov    0x4(%edx),%edx
  10245c:	89 c5                	mov    %eax,%ebp
  10245e:	89 d4                	mov    %edx,%esp
  102460:	90                   	nop
  102461:	5d                   	pop    %ebp
  102462:	c3                   	ret    

00102463 <is_kernel_memory_overlap>:
  102463:	55                   	push   %ebp
  102464:	89 e5                	mov    %esp,%ebp
  102466:	83 ec 20             	sub    $0x20,%esp
  102469:	8b 45 08             	mov    0x8(%ebp),%eax
  10246c:	8b 40 08             	mov    0x8(%eax),%eax
  10246f:	89 45 fc             	mov    %eax,-0x4(%ebp)
  102472:	8b 45 08             	mov    0x8(%ebp),%eax
  102475:	8b 50 14             	mov    0x14(%eax),%edx
  102478:	8b 45 fc             	mov    -0x4(%ebp),%eax
  10247b:	01 d0                	add    %edx,%eax
  10247d:	89 45 f8             	mov    %eax,-0x8(%ebp)
  102480:	b8 b0 38 17 00       	mov    $0x1738b0,%eax
  102485:	05 00 90 00 00       	add    $0x9000,%eax
  10248a:	89 45 f4             	mov    %eax,-0xc(%ebp)
  10248d:	c7 45 f0 00 00 00 00 	movl   $0x0,-0x10(%ebp)
  102494:	c7 45 ec b0 38 17 00 	movl   $0x1738b0,-0x14(%ebp)
  10249b:	8b 45 ec             	mov    -0x14(%ebp),%eax
  10249e:	39 45 fc             	cmp    %eax,-0x4(%ebp)
  1024a1:	73 0f                	jae    1024b2 <is_kernel_memory_overlap+0x4f>
  1024a3:	8b 45 f0             	mov    -0x10(%ebp),%eax
  1024a6:	39 45 f8             	cmp    %eax,-0x8(%ebp)
  1024a9:	76 07                	jbe    1024b2 <is_kernel_memory_overlap+0x4f>
  1024ab:	b8 01 00 00 00       	mov    $0x1,%eax
  1024b0:	eb 05                	jmp    1024b7 <is_kernel_memory_overlap+0x54>
  1024b2:	b8 00 00 00 00       	mov    $0x0,%eax
  1024b7:	c9                   	leave  
  1024b8:	c3                   	ret    

001024b9 <switch_to_user_mode>:
  1024b9:	55                   	push   %ebp
  1024ba:	89 e5                	mov    %esp,%ebp
  1024bc:	89 e2                	mov    %esp,%edx
  1024be:	8b 45 0c             	mov    0xc(%ebp),%eax
  1024c1:	89 10                	mov    %edx,(%eax)
  1024c3:	8b 45 08             	mov    0x8(%ebp),%eax
  1024c6:	8b 00                	mov    (%eax),%eax
  1024c8:	8b 55 08             	mov    0x8(%ebp),%edx
  1024cb:	8b 52 04             	mov    0x4(%edx),%edx
  1024ce:	89 c4                	mov    %eax,%esp
  1024d0:	ff d2                	call   *%edx
  1024d2:	8b 45 0c             	mov    0xc(%ebp),%eax
  1024d5:	8b 00                	mov    (%eax),%eax
  1024d7:	89 c4                	mov    %eax,%esp
  1024d9:	90                   	nop
  1024da:	5d                   	pop    %ebp
  1024db:	c3                   	ret    

001024dc <load_elf_executable>:
  1024dc:	55                   	push   %ebp
  1024dd:	89 e5                	mov    %esp,%ebp
  1024df:	83 ec 48             	sub    $0x48,%esp
  1024e2:	8b 45 08             	mov    0x8(%ebp),%eax
  1024e5:	89 45 d8             	mov    %eax,-0x28(%ebp)
  1024e8:	68 04 4a 12 00       	push   $0x124a04
  1024ed:	68 e4 00 00 00       	push   $0xe4
  1024f2:	68 b4 49 12 00       	push   $0x1249b4
  1024f7:	68 c9 49 12 00       	push   $0x1249c9
  1024fc:	e8 32 e7 ff ff       	call   100c33 <printf_com>
  102501:	83 c4 10             	add    $0x10,%esp
  102504:	8b 45 d8             	mov    -0x28(%ebp),%eax
  102507:	83 ec 04             	sub    $0x4,%esp
  10250a:	6a 04                	push   $0x4
  10250c:	68 d6 49 12 00       	push   $0x1249d6
  102511:	50                   	push   %eax
  102512:	e8 a1 0e 02 00       	call   1233b8 <memcmp>
  102517:	83 c4 10             	add    $0x10,%esp
  10251a:	85 c0                	test   %eax,%eax
  10251c:	0f 85 55 04 00 00    	jne    102977 <load_elf_executable+0x49b>
  102522:	68 04 4a 12 00       	push   $0x124a04
  102527:	68 e8 00 00 00       	push   $0xe8
  10252c:	68 b4 49 12 00       	push   $0x1249b4
  102531:	68 c9 49 12 00       	push   $0x1249c9
  102536:	e8 f8 e6 ff ff       	call   100c33 <printf_com>
  10253b:	83 c4 10             	add    $0x10,%esp
  10253e:	c7 45 f4 00 00 00 00 	movl   $0x0,-0xc(%ebp)
  102545:	e9 1a 02 00 00       	jmp    102764 <load_elf_executable+0x288>
  10254a:	8b 45 d8             	mov    -0x28(%ebp),%eax
  10254d:	8b 50 1c             	mov    0x1c(%eax),%edx
  102550:	8b 45 d8             	mov    -0x28(%ebp),%eax
  102553:	0f b7 40 2a          	movzwl 0x2a(%eax),%eax
  102557:	0f b7 c0             	movzwl %ax,%eax
  10255a:	0f af 45 f4          	imul   -0xc(%ebp),%eax
  10255e:	01 c2                	add    %eax,%edx
  102560:	8b 45 08             	mov    0x8(%ebp),%eax
  102563:	01 d0                	add    %edx,%eax
  102565:	89 45 d4             	mov    %eax,-0x2c(%ebp)
  102568:	68 04 4a 12 00       	push   $0x124a04
  10256d:	68 ec 00 00 00       	push   $0xec
  102572:	68 b4 49 12 00       	push   $0x1249b4
  102577:	68 c9 49 12 00       	push   $0x1249c9
  10257c:	e8 b2 e6 ff ff       	call   100c33 <printf_com>
  102581:	83 c4 10             	add    $0x10,%esp
  102584:	8b 45 d4             	mov    -0x2c(%ebp),%eax
  102587:	8b 00                	mov    (%eax),%eax
  102589:	83 f8 01             	cmp    $0x1,%eax
  10258c:	0f 85 b2 01 00 00    	jne    102744 <load_elf_executable+0x268>
  102592:	8b 45 d4             	mov    -0x2c(%ebp),%eax
  102595:	8b 40 10             	mov    0x10(%eax),%eax
  102598:	83 ec 0c             	sub    $0xc,%esp
  10259b:	50                   	push   %eax
  10259c:	e8 9c 2f 00 00       	call   10553d <kmalloc>
  1025a1:	83 c4 10             	add    $0x10,%esp
  1025a4:	89 45 f0             	mov    %eax,-0x10(%ebp)
  1025a7:	83 7d f0 00          	cmpl   $0x0,-0x10(%ebp)
  1025ab:	0f 84 c9 03 00 00    	je     10297a <load_elf_executable+0x49e>
  1025b1:	68 04 4a 12 00       	push   $0x124a04
  1025b6:	68 f2 00 00 00       	push   $0xf2
  1025bb:	68 b4 49 12 00       	push   $0x1249b4
  1025c0:	68 c9 49 12 00       	push   $0x1249c9
  1025c5:	e8 69 e6 ff ff       	call   100c33 <printf_com>
  1025ca:	83 c4 10             	add    $0x10,%esp
  1025cd:	a1 1c e0 12 00       	mov    0x12e01c,%eax
  1025d2:	8b 55 f0             	mov    -0x10(%ebp),%edx
  1025d5:	89 14 85 a0 94 14 00 	mov    %edx,0x1494a0(,%eax,4)
  1025dc:	a1 1c e0 12 00       	mov    0x12e01c,%eax
  1025e1:	83 c0 01             	add    $0x1,%eax
  1025e4:	a3 1c e0 12 00       	mov    %eax,0x12e01c
  1025e9:	8b 45 d4             	mov    -0x2c(%ebp),%eax
  1025ec:	8b 40 14             	mov    0x14(%eax),%eax
  1025ef:	c1 e8 0c             	shr    $0xc,%eax
  1025f2:	89 45 ec             	mov    %eax,-0x14(%ebp)
  1025f5:	8b 45 d4             	mov    -0x2c(%ebp),%eax
  1025f8:	8b 40 14             	mov    0x14(%eax),%eax
  1025fb:	25 ff 0f 00 00       	and    $0xfff,%eax
  102600:	85 c0                	test   %eax,%eax
  102602:	74 04                	je     102608 <load_elf_executable+0x12c>
  102604:	83 45 ec 01          	addl   $0x1,-0x14(%ebp)
  102608:	68 04 4a 12 00       	push   $0x124a04
  10260d:	68 f9 00 00 00       	push   $0xf9
  102612:	68 b4 49 12 00       	push   $0x1249b4
  102617:	68 c9 49 12 00       	push   $0x1249c9
  10261c:	e8 12 e6 ff ff       	call   100c33 <printf_com>
  102621:	83 c4 10             	add    $0x10,%esp
  102624:	8b 45 d4             	mov    -0x2c(%ebp),%eax
  102627:	8b 40 08             	mov    0x8(%eax),%eax
  10262a:	89 45 e8             	mov    %eax,-0x18(%ebp)
  10262d:	8b 45 d4             	mov    -0x2c(%ebp),%eax
  102630:	8b 50 08             	mov    0x8(%eax),%edx
  102633:	8b 45 d4             	mov    -0x2c(%ebp),%eax
  102636:	8b 40 1c             	mov    0x1c(%eax),%eax
  102639:	83 e8 01             	sub    $0x1,%eax
  10263c:	21 d0                	and    %edx,%eax
  10263e:	89 45 d0             	mov    %eax,-0x30(%ebp)
  102641:	c7 45 e4 00 00 00 00 	movl   $0x0,-0x1c(%ebp)
  102648:	eb 40                	jmp    10268a <load_elf_executable+0x1ae>
  10264a:	8b 45 f0             	mov    -0x10(%ebp),%eax
  10264d:	83 ec 04             	sub    $0x4,%esp
  102650:	6a 03                	push   $0x3
  102652:	50                   	push   %eax
  102653:	ff 75 e8             	push   -0x18(%ebp)
  102656:	e8 64 39 00 00       	call   105fbf <map>
  10265b:	83 c4 10             	add    $0x10,%esp
  10265e:	8b 45 e4             	mov    -0x1c(%ebp),%eax
  102661:	8b 55 e8             	mov    -0x18(%ebp),%edx
  102664:	89 14 85 a0 94 14 00 	mov    %edx,0x1494a0(,%eax,4)
  10266b:	a1 18 e0 12 00       	mov    0x12e018,%eax
  102670:	83 c0 01             	add    $0x1,%eax
  102673:	a3 18 e0 12 00       	mov    %eax,0x12e018
  102678:	81 45 e8 00 10 00 00 	addl   $0x1000,-0x18(%ebp)
  10267f:	81 45 f0 00 40 00 00 	addl   $0x4000,-0x10(%ebp)
  102686:	83 45 e4 01          	addl   $0x1,-0x1c(%ebp)
  10268a:	8b 45 e4             	mov    -0x1c(%ebp),%eax
  10268d:	3b 45 ec             	cmp    -0x14(%ebp),%eax
  102690:	72 b8                	jb     10264a <load_elf_executable+0x16e>
  102692:	68 04 4a 12 00       	push   $0x124a04
  102697:	68 06 01 00 00       	push   $0x106
  10269c:	68 b4 49 12 00       	push   $0x1249b4
  1026a1:	68 c9 49 12 00       	push   $0x1249c9
  1026a6:	e8 88 e5 ff ff       	call   100c33 <printf_com>
  1026ab:	83 c4 10             	add    $0x10,%esp
  1026ae:	83 ec 08             	sub    $0x8,%esp
  1026b1:	68 07 01 00 00       	push   $0x107
  1026b6:	68 db 49 12 00       	push   $0x1249db
  1026bb:	e8 69 f4 01 00       	call   121b29 <printf>
  1026c0:	83 c4 10             	add    $0x10,%esp
  1026c3:	8b 45 d4             	mov    -0x2c(%ebp),%eax
  1026c6:	8b 40 10             	mov    0x10(%eax),%eax
  1026c9:	8b 55 d4             	mov    -0x2c(%ebp),%edx
  1026cc:	8b 4a 04             	mov    0x4(%edx),%ecx
  1026cf:	8b 55 08             	mov    0x8(%ebp),%edx
  1026d2:	01 d1                	add    %edx,%ecx
  1026d4:	8b 55 d4             	mov    -0x2c(%ebp),%edx
  1026d7:	8b 52 08             	mov    0x8(%edx),%edx
  1026da:	83 ec 04             	sub    $0x4,%esp
  1026dd:	50                   	push   %eax
  1026de:	51                   	push   %ecx
  1026df:	52                   	push   %edx
  1026e0:	e8 02 0c 02 00       	call   1232e7 <memcpy>
  1026e5:	83 c4 10             	add    $0x10,%esp
  1026e8:	83 ec 08             	sub    $0x8,%esp
  1026eb:	68 09 01 00 00       	push   $0x109
  1026f0:	68 db 49 12 00       	push   $0x1249db
  1026f5:	e8 2f f4 01 00       	call   121b29 <printf>
  1026fa:	83 c4 10             	add    $0x10,%esp
  1026fd:	8b 45 d4             	mov    -0x2c(%ebp),%eax
  102700:	8b 50 14             	mov    0x14(%eax),%edx
  102703:	8b 45 d4             	mov    -0x2c(%ebp),%eax
  102706:	8b 40 10             	mov    0x10(%eax),%eax
  102709:	29 c2                	sub    %eax,%edx
  10270b:	8b 45 d4             	mov    -0x2c(%ebp),%eax
  10270e:	8b 48 10             	mov    0x10(%eax),%ecx
  102711:	8b 45 d4             	mov    -0x2c(%ebp),%eax
  102714:	8b 40 08             	mov    0x8(%eax),%eax
  102717:	01 c8                	add    %ecx,%eax
  102719:	83 ec 04             	sub    $0x4,%esp
  10271c:	52                   	push   %edx
  10271d:	6a 00                	push   $0x0
  10271f:	50                   	push   %eax
  102720:	e8 16 0a 02 00       	call   12313b <memset>
  102725:	83 c4 10             	add    $0x10,%esp
  102728:	68 04 4a 12 00       	push   $0x124a04
  10272d:	68 0d 01 00 00       	push   $0x10d
  102732:	68 b4 49 12 00       	push   $0x1249b4
  102737:	68 c9 49 12 00       	push   $0x1249c9
  10273c:	e8 f2 e4 ff ff       	call   100c33 <printf_com>
  102741:	83 c4 10             	add    $0x10,%esp
  102744:	68 04 4a 12 00       	push   $0x124a04
  102749:	68 0f 01 00 00       	push   $0x10f
  10274e:	68 b4 49 12 00       	push   $0x1249b4
  102753:	68 c9 49 12 00       	push   $0x1249c9
  102758:	e8 d6 e4 ff ff       	call   100c33 <printf_com>
  10275d:	83 c4 10             	add    $0x10,%esp
  102760:	83 45 f4 01          	addl   $0x1,-0xc(%ebp)
  102764:	8b 45 d8             	mov    -0x28(%ebp),%eax
  102767:	0f b7 40 2c          	movzwl 0x2c(%eax),%eax
  10276b:	0f b7 c0             	movzwl %ax,%eax
  10276e:	39 45 f4             	cmp    %eax,-0xc(%ebp)
  102771:	0f 8c d3 fd ff ff    	jl     10254a <load_elf_executable+0x6e>
  102777:	68 04 4a 12 00       	push   $0x124a04
  10277c:	68 12 01 00 00       	push   $0x112
  102781:	68 b4 49 12 00       	push   $0x1249b4
  102786:	68 c9 49 12 00       	push   $0x1249c9
  10278b:	e8 a3 e4 ff ff       	call   100c33 <printf_com>
  102790:	83 c4 10             	add    $0x10,%esp
  102793:	8b 45 d8             	mov    -0x28(%ebp),%eax
  102796:	8b 40 18             	mov    0x18(%eax),%eax
  102799:	89 45 c0             	mov    %eax,-0x40(%ebp)
  10279c:	c7 45 bc f0 6e 14 00 	movl   $0x146ef0,-0x44(%ebp)
  1027a3:	83 ec 08             	sub    $0x8,%esp
  1027a6:	68 19 01 00 00       	push   $0x119
  1027ab:	68 db 49 12 00       	push   $0x1249db
  1027b0:	e8 74 f3 01 00       	call   121b29 <printf>
  1027b5:	83 c4 10             	add    $0x10,%esp
  1027b8:	8b 45 bc             	mov    -0x44(%ebp),%eax
  1027bb:	83 ec 04             	sub    $0x4,%esp
  1027be:	68 00 20 00 00       	push   $0x2000
  1027c3:	6a 00                	push   $0x0
  1027c5:	50                   	push   %eax
  1027c6:	e8 70 09 02 00       	call   12313b <memset>
  1027cb:	83 c4 10             	add    $0x10,%esp
  1027ce:	68 04 4a 12 00       	push   $0x124a04
  1027d3:	68 1c 01 00 00       	push   $0x11c
  1027d8:	68 b4 49 12 00       	push   $0x1249b4
  1027dd:	68 c9 49 12 00       	push   $0x1249c9
  1027e2:	e8 4c e4 ff ff       	call   100c33 <printf_com>
  1027e7:	83 c4 10             	add    $0x10,%esp
  1027ea:	8d 45 bc             	lea    -0x44(%ebp),%eax
  1027ed:	89 c4                	mov    %eax,%esp
  1027ef:	68 04 4a 12 00       	push   $0x124a04
  1027f4:	68 23 01 00 00       	push   $0x123
  1027f9:	68 b4 49 12 00       	push   $0x1249b4
  1027fe:	68 c9 49 12 00       	push   $0x1249c9
  102803:	e8 2b e4 ff ff       	call   100c33 <printf_com>
  102808:	83 c4 10             	add    $0x10,%esp
  10280b:	8b 45 d8             	mov    -0x28(%ebp),%eax
  10280e:	8b 40 18             	mov    0x18(%eax),%eax
  102811:	89 45 cc             	mov    %eax,-0x34(%ebp)
  102814:	83 ec 0c             	sub    $0xc,%esp
  102817:	68 f1 49 12 00       	push   $0x1249f1
  10281c:	e8 08 f3 01 00       	call   121b29 <printf>
  102821:	83 c4 10             	add    $0x10,%esp
  102824:	83 ec 08             	sub    $0x8,%esp
  102827:	ff 75 10             	push   0x10(%ebp)
  10282a:	ff 75 0c             	push   0xc(%ebp)
  10282d:	8b 45 cc             	mov    -0x34(%ebp),%eax
  102830:	ff d0                	call   *%eax
  102832:	83 c4 10             	add    $0x10,%esp
  102835:	8d 45 bc             	lea    -0x44(%ebp),%eax
  102838:	89 c4                	mov    %eax,%esp
  10283a:	68 04 4a 12 00       	push   $0x124a04
  10283f:	68 30 01 00 00       	push   $0x130
  102844:	68 b4 49 12 00       	push   $0x1249b4
  102849:	68 c9 49 12 00       	push   $0x1249c9
  10284e:	e8 e0 e3 ff ff       	call   100c33 <printf_com>
  102853:	83 c4 10             	add    $0x10,%esp
  102856:	83 ec 08             	sub    $0x8,%esp
  102859:	68 31 01 00 00       	push   $0x131
  10285e:	68 db 49 12 00       	push   $0x1249db
  102863:	e8 c1 f2 01 00       	call   121b29 <printf>
  102868:	83 c4 10             	add    $0x10,%esp
  10286b:	c7 45 e0 00 00 00 00 	movl   $0x0,-0x20(%ebp)
  102872:	eb 6f                	jmp    1028e3 <load_elf_executable+0x407>
  102874:	68 04 4a 12 00       	push   $0x124a04
  102879:	68 35 01 00 00       	push   $0x135
  10287e:	68 b4 49 12 00       	push   $0x1249b4
  102883:	68 c9 49 12 00       	push   $0x1249c9
  102888:	e8 a6 e3 ff ff       	call   100c33 <printf_com>
  10288d:	83 c4 10             	add    $0x10,%esp
  102890:	8b 45 e0             	mov    -0x20(%ebp),%eax
  102893:	8b 04 85 a0 94 14 00 	mov    0x1494a0(,%eax,4),%eax
  10289a:	85 c0                	test   %eax,%eax
  10289c:	74 41                	je     1028df <load_elf_executable+0x403>
  10289e:	8b 45 e0             	mov    -0x20(%ebp),%eax
  1028a1:	8b 04 85 a0 94 14 00 	mov    0x1494a0(,%eax,4),%eax
  1028a8:	83 ec 04             	sub    $0x4,%esp
  1028ab:	68 00 10 00 00       	push   $0x1000
  1028b0:	6a 00                	push   $0x0
  1028b2:	50                   	push   %eax
  1028b3:	e8 83 08 02 00       	call   12313b <memset>
  1028b8:	83 c4 10             	add    $0x10,%esp
  1028bb:	8b 45 e0             	mov    -0x20(%ebp),%eax
  1028be:	8b 04 85 a0 94 14 00 	mov    0x1494a0(,%eax,4),%eax
  1028c5:	83 ec 0c             	sub    $0xc,%esp
  1028c8:	50                   	push   %eax
  1028c9:	e8 d2 37 00 00       	call   1060a0 <unmap>
  1028ce:	83 c4 10             	add    $0x10,%esp
  1028d1:	8b 45 e0             	mov    -0x20(%ebp),%eax
  1028d4:	c7 04 85 a0 94 14 00 	movl   $0x0,0x1494a0(,%eax,4)
  1028db:	00 00 00 00 
  1028df:	83 45 e0 01          	addl   $0x1,-0x20(%ebp)
  1028e3:	a1 18 e0 12 00       	mov    0x12e018,%eax
  1028e8:	39 45 e0             	cmp    %eax,-0x20(%ebp)
  1028eb:	72 87                	jb     102874 <load_elf_executable+0x398>
  1028ed:	c7 05 18 e0 12 00 00 	movl   $0x0,0x12e018
  1028f4:	00 00 00 
  1028f7:	c7 45 dc 00 00 00 00 	movl   $0x0,-0x24(%ebp)
  1028fe:	eb 44                	jmp    102944 <load_elf_executable+0x468>
  102900:	68 04 4a 12 00       	push   $0x124a04
  102905:	68 41 01 00 00       	push   $0x141
  10290a:	68 b4 49 12 00       	push   $0x1249b4
  10290f:	68 c9 49 12 00       	push   $0x1249c9
  102914:	e8 1a e3 ff ff       	call   100c33 <printf_com>
  102919:	83 c4 10             	add    $0x10,%esp
  10291c:	8b 45 dc             	mov    -0x24(%ebp),%eax
  10291f:	8b 04 85 00 8f 14 00 	mov    0x148f00(,%eax,4),%eax
  102926:	83 ec 0c             	sub    $0xc,%esp
  102929:	50                   	push   %eax
  10292a:	e8 62 2c 00 00       	call   105591 <kfree>
  10292f:	83 c4 10             	add    $0x10,%esp
  102932:	8b 45 dc             	mov    -0x24(%ebp),%eax
  102935:	c7 04 85 00 8f 14 00 	movl   $0x0,0x148f00(,%eax,4)
  10293c:	00 00 00 00 
  102940:	83 45 dc 01          	addl   $0x1,-0x24(%ebp)
  102944:	a1 1c e0 12 00       	mov    0x12e01c,%eax
  102949:	39 45 dc             	cmp    %eax,-0x24(%ebp)
  10294c:	72 b2                	jb     102900 <load_elf_executable+0x424>
  10294e:	c7 05 1c e0 12 00 00 	movl   $0x0,0x12e01c
  102955:	00 00 00 
  102958:	68 04 4a 12 00       	push   $0x124a04
  10295d:	68 46 01 00 00       	push   $0x146
  102962:	68 b4 49 12 00       	push   $0x1249b4
  102967:	68 c9 49 12 00       	push   $0x1249c9
  10296c:	e8 c2 e2 ff ff       	call   100c33 <printf_com>
  102971:	83 c4 10             	add    $0x10,%esp
  102974:	90                   	nop
  102975:	eb 04                	jmp    10297b <load_elf_executable+0x49f>
  102977:	90                   	nop
  102978:	eb 01                	jmp    10297b <load_elf_executable+0x49f>
  10297a:	90                   	nop
  10297b:	c9                   	leave  
  10297c:	c3                   	ret    

0010297d <exit_elf>:
  10297d:	55                   	push   %ebp
  10297e:	89 e5                	mov    %esp,%ebp
  102980:	8b 45 08             	mov    0x8(%ebp),%eax
  102983:	8b 00                	mov    (%eax),%eax
  102985:	89 c4                	mov    %eax,%esp
  102987:	90                   	nop
  102988:	5d                   	pop    %ebp
  102989:	c3                   	ret    

0010298a <load_elf_file>:
  10298a:	55                   	push   %ebp
  10298b:	89 e5                	mov    %esp,%ebp
  10298d:	83 ec 18             	sub    $0x18,%esp
  102990:	83 ec 08             	sub    $0x8,%esp
  102993:	68 ff 49 12 00       	push   $0x1249ff
  102998:	ff 75 08             	push   0x8(%ebp)
  10299b:	e8 b8 66 01 00       	call   119058 <fl_fopen>
  1029a0:	83 c4 10             	add    $0x10,%esp
  1029a3:	89 45 f4             	mov    %eax,-0xc(%ebp)
  1029a6:	83 7d f4 00          	cmpl   $0x0,-0xc(%ebp)
  1029aa:	0f 84 da 00 00 00    	je     102a8a <load_elf_file+0x100>
  1029b0:	83 ec 04             	sub    $0x4,%esp
  1029b3:	6a 02                	push   $0x2
  1029b5:	6a 00                	push   $0x0
  1029b7:	ff 75 f4             	push   -0xc(%ebp)
  1029ba:	e8 f1 6e 01 00       	call   1198b0 <fl_fseek>
  1029bf:	83 c4 10             	add    $0x10,%esp
  1029c2:	83 ec 0c             	sub    $0xc,%esp
  1029c5:	ff 75 f4             	push   -0xc(%ebp)
  1029c8:	e8 7e 70 01 00       	call   119a4b <fl_ftell>
  1029cd:	83 c4 10             	add    $0x10,%esp
  1029d0:	89 45 f0             	mov    %eax,-0x10(%ebp)
  1029d3:	83 ec 04             	sub    $0x4,%esp
  1029d6:	6a 00                	push   $0x0
  1029d8:	6a 00                	push   $0x0
  1029da:	ff 75 f4             	push   -0xc(%ebp)
  1029dd:	e8 ce 6e 01 00       	call   1198b0 <fl_fseek>
  1029e2:	83 c4 10             	add    $0x10,%esp
  1029e5:	8b 45 f0             	mov    -0x10(%ebp),%eax
  1029e8:	83 ec 0c             	sub    $0xc,%esp
  1029eb:	50                   	push   %eax
  1029ec:	e8 4c 2b 00 00       	call   10553d <kmalloc>
  1029f1:	83 c4 10             	add    $0x10,%esp
  1029f4:	89 45 ec             	mov    %eax,-0x14(%ebp)
  1029f7:	83 7d ec 00          	cmpl   $0x0,-0x14(%ebp)
  1029fb:	75 10                	jne    102a0d <load_elf_file+0x83>
  1029fd:	83 ec 0c             	sub    $0xc,%esp
  102a00:	ff 75 f4             	push   -0xc(%ebp)
  102a03:	e8 ea 6a 01 00       	call   1194f2 <fl_fclose>
  102a08:	83 c4 10             	add    $0x10,%esp
  102a0b:	eb 7e                	jmp    102a8b <load_elf_file+0x101>
  102a0d:	ff 75 f4             	push   -0xc(%ebp)
  102a10:	ff 75 f0             	push   -0x10(%ebp)
  102a13:	6a 01                	push   $0x1
  102a15:	ff 75 ec             	push   -0x14(%ebp)
  102a18:	e8 74 6c 01 00       	call   119691 <fl_fread>
  102a1d:	83 c4 10             	add    $0x10,%esp
  102a20:	83 ec 0c             	sub    $0xc,%esp
  102a23:	ff 75 f4             	push   -0xc(%ebp)
  102a26:	e8 c7 6a 01 00       	call   1194f2 <fl_fclose>
  102a2b:	83 c4 10             	add    $0x10,%esp
  102a2e:	83 ec 04             	sub    $0x4,%esp
  102a31:	ff 75 10             	push   0x10(%ebp)
  102a34:	ff 75 0c             	push   0xc(%ebp)
  102a37:	ff 75 ec             	push   -0x14(%ebp)
  102a3a:	e8 9d fa ff ff       	call   1024dc <load_elf_executable>
  102a3f:	83 c4 10             	add    $0x10,%esp
  102a42:	68 18 4a 12 00       	push   $0x124a18
  102a47:	68 cc 01 00 00       	push   $0x1cc
  102a4c:	68 b4 49 12 00       	push   $0x1249b4
  102a51:	68 c9 49 12 00       	push   $0x1249c9
  102a56:	e8 d8 e1 ff ff       	call   100c33 <printf_com>
  102a5b:	83 c4 10             	add    $0x10,%esp
  102a5e:	83 ec 0c             	sub    $0xc,%esp
  102a61:	ff 75 ec             	push   -0x14(%ebp)
  102a64:	e8 28 2b 00 00       	call   105591 <kfree>
  102a69:	83 c4 10             	add    $0x10,%esp
  102a6c:	68 18 4a 12 00       	push   $0x124a18
  102a71:	68 d3 01 00 00       	push   $0x1d3
  102a76:	68 b4 49 12 00       	push   $0x1249b4
  102a7b:	68 c9 49 12 00       	push   $0x1249c9
  102a80:	e8 ae e1 ff ff       	call   100c33 <printf_com>
  102a85:	83 c4 10             	add    $0x10,%esp
  102a88:	eb 01                	jmp    102a8b <load_elf_file+0x101>
  102a8a:	90                   	nop
  102a8b:	c9                   	leave  
  102a8c:	c3                   	ret    

00102a8d <execute_file>:
  102a8d:	55                   	push   %ebp
  102a8e:	89 e5                	mov    %esp,%ebp
  102a90:	83 ec 08             	sub    $0x8,%esp
  102a93:	68 28 4a 12 00       	push   $0x124a28
  102a98:	68 16 02 00 00       	push   $0x216
  102a9d:	68 b4 49 12 00       	push   $0x1249b4
  102aa2:	68 c9 49 12 00       	push   $0x1249c9
  102aa7:	e8 87 e1 ff ff       	call   100c33 <printf_com>
  102aac:	83 c4 10             	add    $0x10,%esp
  102aaf:	83 ec 08             	sub    $0x8,%esp
  102ab2:	ff 75 08             	push   0x8(%ebp)
  102ab5:	68 a0 90 14 00       	push   $0x1490a0
  102aba:	e8 a2 0a 02 00       	call   123561 <strcpy>
  102abf:	83 c4 10             	add    $0x10,%esp
  102ac2:	8b 45 0c             	mov    0xc(%ebp),%eax
  102ac5:	a3 f0 8e 14 00       	mov    %eax,0x148ef0
  102aca:	8b 45 10             	mov    0x10(%ebp),%eax
  102acd:	a3 30 96 14 00       	mov    %eax,0x149630
  102ad2:	e8 03 00 00 00       	call   102ada <internal_run_exe>
  102ad7:	90                   	nop
  102ad8:	c9                   	leave  
  102ad9:	c3                   	ret    

00102ada <internal_run_exe>:
  102ada:	55                   	push   %ebp
  102adb:	89 e5                	mov    %esp,%ebp
  102add:	83 ec 08             	sub    $0x8,%esp
  102ae0:	68 38 4a 12 00       	push   $0x124a38
  102ae5:	68 23 02 00 00       	push   $0x223
  102aea:	68 b4 49 12 00       	push   $0x1249b4
  102aef:	68 c9 49 12 00       	push   $0x1249c9
  102af4:	e8 3a e1 ff ff       	call   100c33 <printf_com>
  102af9:	83 c4 10             	add    $0x10,%esp
  102afc:	83 ec 0c             	sub    $0xc,%esp
  102aff:	6a 7f                	push   $0x7f
  102b01:	e8 6c c7 00 00       	call   10f272 <lock_kb_input>
  102b06:	83 c4 10             	add    $0x10,%esp
  102b09:	68 38 4a 12 00       	push   $0x124a38
  102b0e:	68 25 02 00 00       	push   $0x225
  102b13:	68 b4 49 12 00       	push   $0x1249b4
  102b18:	68 c9 49 12 00       	push   $0x1249c9
  102b1d:	e8 11 e1 ff ff       	call   100c33 <printf_com>
  102b22:	83 c4 10             	add    $0x10,%esp
  102b25:	8b 15 30 96 14 00    	mov    0x149630,%edx
  102b2b:	a1 f0 8e 14 00       	mov    0x148ef0,%eax
  102b30:	83 ec 04             	sub    $0x4,%esp
  102b33:	52                   	push   %edx
  102b34:	50                   	push   %eax
  102b35:	68 a0 90 14 00       	push   $0x1490a0
  102b3a:	e8 4b fe ff ff       	call   10298a <load_elf_file>
  102b3f:	83 c4 10             	add    $0x10,%esp
  102b42:	e8 39 c7 00 00       	call   10f280 <unlock_kb_input>
  102b47:	c7 05 f0 8e 14 00 00 	movl   $0x0,0x148ef0
  102b4e:	00 00 00 
  102b51:	68 38 4a 12 00       	push   $0x124a38
  102b56:	68 29 02 00 00       	push   $0x229
  102b5b:	68 b4 49 12 00       	push   $0x1249b4
  102b60:	68 c9 49 12 00       	push   $0x1249c9
  102b65:	e8 c9 e0 ff ff       	call   100c33 <printf_com>
  102b6a:	83 c4 10             	add    $0x10,%esp
  102b6d:	90                   	nop
  102b6e:	c9                   	leave  
  102b6f:	c3                   	ret    

00102b70 <fat_list_init>:
  102b70:	55                   	push   %ebp
  102b71:	89 e5                	mov    %esp,%ebp
  102b73:	8b 45 08             	mov    0x8(%ebp),%eax
  102b76:	c7 40 04 00 00 00 00 	movl   $0x0,0x4(%eax)
  102b7d:	8b 45 08             	mov    0x8(%ebp),%eax
  102b80:	8b 50 04             	mov    0x4(%eax),%edx
  102b83:	8b 45 08             	mov    0x8(%ebp),%eax
  102b86:	89 10                	mov    %edx,(%eax)
  102b88:	90                   	nop
  102b89:	5d                   	pop    %ebp
  102b8a:	c3                   	ret    

00102b8b <fat_list_remove>:
  102b8b:	55                   	push   %ebp
  102b8c:	89 e5                	mov    %esp,%ebp
  102b8e:	8b 45 0c             	mov    0xc(%ebp),%eax
  102b91:	8b 00                	mov    (%eax),%eax
  102b93:	85 c0                	test   %eax,%eax
  102b95:	75 0d                	jne    102ba4 <fat_list_remove+0x19>
  102b97:	8b 45 0c             	mov    0xc(%ebp),%eax
  102b9a:	8b 50 04             	mov    0x4(%eax),%edx
  102b9d:	8b 45 08             	mov    0x8(%ebp),%eax
  102ba0:	89 10                	mov    %edx,(%eax)
  102ba2:	eb 0e                	jmp    102bb2 <fat_list_remove+0x27>
  102ba4:	8b 45 0c             	mov    0xc(%ebp),%eax
  102ba7:	8b 00                	mov    (%eax),%eax
  102ba9:	8b 55 0c             	mov    0xc(%ebp),%edx
  102bac:	8b 52 04             	mov    0x4(%edx),%edx
  102baf:	89 50 04             	mov    %edx,0x4(%eax)
  102bb2:	8b 45 0c             	mov    0xc(%ebp),%eax
  102bb5:	8b 40 04             	mov    0x4(%eax),%eax
  102bb8:	85 c0                	test   %eax,%eax
  102bba:	75 0d                	jne    102bc9 <fat_list_remove+0x3e>
  102bbc:	8b 45 0c             	mov    0xc(%ebp),%eax
  102bbf:	8b 10                	mov    (%eax),%edx
  102bc1:	8b 45 08             	mov    0x8(%ebp),%eax
  102bc4:	89 50 04             	mov    %edx,0x4(%eax)
  102bc7:	eb 0d                	jmp    102bd6 <fat_list_remove+0x4b>
  102bc9:	8b 45 0c             	mov    0xc(%ebp),%eax
  102bcc:	8b 40 04             	mov    0x4(%eax),%eax
  102bcf:	8b 55 0c             	mov    0xc(%ebp),%edx
  102bd2:	8b 12                	mov    (%edx),%edx
  102bd4:	89 10                	mov    %edx,(%eax)
  102bd6:	90                   	nop
  102bd7:	5d                   	pop    %ebp
  102bd8:	c3                   	ret    

00102bd9 <fat_list_insert_after>:
  102bd9:	55                   	push   %ebp
  102bda:	89 e5                	mov    %esp,%ebp
  102bdc:	8b 45 10             	mov    0x10(%ebp),%eax
  102bdf:	8b 55 0c             	mov    0xc(%ebp),%edx
  102be2:	89 10                	mov    %edx,(%eax)
  102be4:	8b 45 0c             	mov    0xc(%ebp),%eax
  102be7:	8b 50 04             	mov    0x4(%eax),%edx
  102bea:	8b 45 10             	mov    0x10(%ebp),%eax
  102bed:	89 50 04             	mov    %edx,0x4(%eax)
  102bf0:	8b 45 0c             	mov    0xc(%ebp),%eax
  102bf3:	8b 40 04             	mov    0x4(%eax),%eax
  102bf6:	85 c0                	test   %eax,%eax
  102bf8:	75 0b                	jne    102c05 <fat_list_insert_after+0x2c>
  102bfa:	8b 45 08             	mov    0x8(%ebp),%eax
  102bfd:	8b 55 10             	mov    0x10(%ebp),%edx
  102c00:	89 50 04             	mov    %edx,0x4(%eax)
  102c03:	eb 0b                	jmp    102c10 <fat_list_insert_after+0x37>
  102c05:	8b 45 0c             	mov    0xc(%ebp),%eax
  102c08:	8b 40 04             	mov    0x4(%eax),%eax
  102c0b:	8b 55 10             	mov    0x10(%ebp),%edx
  102c0e:	89 10                	mov    %edx,(%eax)
  102c10:	8b 45 0c             	mov    0xc(%ebp),%eax
  102c13:	8b 55 10             	mov    0x10(%ebp),%edx
  102c16:	89 50 04             	mov    %edx,0x4(%eax)
  102c19:	90                   	nop
  102c1a:	5d                   	pop    %ebp
  102c1b:	c3                   	ret    

00102c1c <fat_list_insert_before>:
  102c1c:	55                   	push   %ebp
  102c1d:	89 e5                	mov    %esp,%ebp
  102c1f:	8b 45 0c             	mov    0xc(%ebp),%eax
  102c22:	8b 10                	mov    (%eax),%edx
  102c24:	8b 45 10             	mov    0x10(%ebp),%eax
  102c27:	89 10                	mov    %edx,(%eax)
  102c29:	8b 45 10             	mov    0x10(%ebp),%eax
  102c2c:	8b 55 0c             	mov    0xc(%ebp),%edx
  102c2f:	89 50 04             	mov    %edx,0x4(%eax)
  102c32:	8b 45 0c             	mov    0xc(%ebp),%eax
  102c35:	8b 00                	mov    (%eax),%eax
  102c37:	85 c0                	test   %eax,%eax
  102c39:	75 0a                	jne    102c45 <fat_list_insert_before+0x29>
  102c3b:	8b 45 08             	mov    0x8(%ebp),%eax
  102c3e:	8b 55 10             	mov    0x10(%ebp),%edx
  102c41:	89 10                	mov    %edx,(%eax)
  102c43:	eb 0b                	jmp    102c50 <fat_list_insert_before+0x34>
  102c45:	8b 45 0c             	mov    0xc(%ebp),%eax
  102c48:	8b 00                	mov    (%eax),%eax
  102c4a:	8b 55 10             	mov    0x10(%ebp),%edx
  102c4d:	89 50 04             	mov    %edx,0x4(%eax)
  102c50:	8b 45 0c             	mov    0xc(%ebp),%eax
  102c53:	8b 55 10             	mov    0x10(%ebp),%edx
  102c56:	89 10                	mov    %edx,(%eax)
  102c58:	90                   	nop
  102c59:	5d                   	pop    %ebp
  102c5a:	c3                   	ret    

00102c5b <fat_list_insert_first>:
  102c5b:	55                   	push   %ebp
  102c5c:	89 e5                	mov    %esp,%ebp
  102c5e:	8b 45 08             	mov    0x8(%ebp),%eax
  102c61:	8b 00                	mov    (%eax),%eax
  102c63:	85 c0                	test   %eax,%eax
  102c65:	75 26                	jne    102c8d <fat_list_insert_first+0x32>
  102c67:	8b 45 08             	mov    0x8(%ebp),%eax
  102c6a:	8b 55 0c             	mov    0xc(%ebp),%edx
  102c6d:	89 10                	mov    %edx,(%eax)
  102c6f:	8b 45 08             	mov    0x8(%ebp),%eax
  102c72:	8b 55 0c             	mov    0xc(%ebp),%edx
  102c75:	89 50 04             	mov    %edx,0x4(%eax)
  102c78:	8b 45 0c             	mov    0xc(%ebp),%eax
  102c7b:	c7 00 00 00 00 00    	movl   $0x0,(%eax)
  102c81:	8b 45 0c             	mov    0xc(%ebp),%eax
  102c84:	c7 40 04 00 00 00 00 	movl   $0x0,0x4(%eax)
  102c8b:	eb 14                	jmp    102ca1 <fat_list_insert_first+0x46>
  102c8d:	8b 45 08             	mov    0x8(%ebp),%eax
  102c90:	8b 00                	mov    (%eax),%eax
  102c92:	ff 75 0c             	push   0xc(%ebp)
  102c95:	50                   	push   %eax
  102c96:	ff 75 08             	push   0x8(%ebp)
  102c99:	e8 7e ff ff ff       	call   102c1c <fat_list_insert_before>
  102c9e:	83 c4 0c             	add    $0xc,%esp
  102ca1:	90                   	nop
  102ca2:	c9                   	leave  
  102ca3:	c3                   	ret    

00102ca4 <fat_list_insert_last>:
  102ca4:	55                   	push   %ebp
  102ca5:	89 e5                	mov    %esp,%ebp
  102ca7:	8b 45 08             	mov    0x8(%ebp),%eax
  102caa:	8b 40 04             	mov    0x4(%eax),%eax
  102cad:	85 c0                	test   %eax,%eax
  102caf:	75 10                	jne    102cc1 <fat_list_insert_last+0x1d>
  102cb1:	ff 75 0c             	push   0xc(%ebp)
  102cb4:	ff 75 08             	push   0x8(%ebp)
  102cb7:	e8 9f ff ff ff       	call   102c5b <fat_list_insert_first>
  102cbc:	83 c4 08             	add    $0x8,%esp
  102cbf:	eb 15                	jmp    102cd6 <fat_list_insert_last+0x32>
  102cc1:	8b 45 08             	mov    0x8(%ebp),%eax
  102cc4:	8b 40 04             	mov    0x4(%eax),%eax
  102cc7:	ff 75 0c             	push   0xc(%ebp)
  102cca:	50                   	push   %eax
  102ccb:	ff 75 08             	push   0x8(%ebp)
  102cce:	e8 06 ff ff ff       	call   102bd9 <fat_list_insert_after>
  102cd3:	83 c4 0c             	add    $0xc,%esp
  102cd6:	90                   	nop
  102cd7:	c9                   	leave  
  102cd8:	c3                   	ret    

00102cd9 <fat_list_is_empty>:
  102cd9:	55                   	push   %ebp
  102cda:	89 e5                	mov    %esp,%ebp
  102cdc:	8b 45 08             	mov    0x8(%ebp),%eax
  102cdf:	8b 00                	mov    (%eax),%eax
  102ce1:	85 c0                	test   %eax,%eax
  102ce3:	0f 94 c0             	sete   %al
  102ce6:	0f b6 c0             	movzbl %al,%eax
  102ce9:	5d                   	pop    %ebp
  102cea:	c3                   	ret    

00102ceb <fat_list_pop_head>:
  102ceb:	55                   	push   %ebp
  102cec:	89 e5                	mov    %esp,%ebp
  102cee:	83 ec 10             	sub    $0x10,%esp
  102cf1:	8b 45 08             	mov    0x8(%ebp),%eax
  102cf4:	8b 00                	mov    (%eax),%eax
  102cf6:	89 45 fc             	mov    %eax,-0x4(%ebp)
  102cf9:	83 7d fc 00          	cmpl   $0x0,-0x4(%ebp)
  102cfd:	74 0e                	je     102d0d <fat_list_pop_head+0x22>
  102cff:	ff 75 fc             	push   -0x4(%ebp)
  102d02:	ff 75 08             	push   0x8(%ebp)
  102d05:	e8 81 fe ff ff       	call   102b8b <fat_list_remove>
  102d0a:	83 c4 08             	add    $0x8,%esp
  102d0d:	8b 45 fc             	mov    -0x4(%ebp),%eax
  102d10:	c9                   	leave  
  102d11:	c3                   	ret    

00102d12 <edit_file>:
  102d12:	55                   	push   %ebp
  102d13:	89 e5                	mov    %esp,%ebp
  102d15:	81 ec 38 01 00 00    	sub    $0x138,%esp
  102d1b:	83 ec 08             	sub    $0x8,%esp
  102d1e:	ff 75 08             	push   0x8(%ebp)
  102d21:	8d 85 c8 fe ff ff    	lea    -0x138(%ebp),%eax
  102d27:	50                   	push   %eax
  102d28:	e8 34 08 02 00       	call   123561 <strcpy>
  102d2d:	83 c4 10             	add    $0x10,%esp
  102d30:	83 ec 08             	sub    $0x8,%esp
  102d33:	68 4c 4a 12 00       	push   $0x124a4c
  102d38:	8d 85 c8 fe ff ff    	lea    -0x138(%ebp),%eax
  102d3e:	50                   	push   %eax
  102d3f:	e8 cb 32 01 00       	call   11600f <fopen>
  102d44:	83 c4 10             	add    $0x10,%esp
  102d47:	89 45 e0             	mov    %eax,-0x20(%ebp)
  102d4a:	83 7d e0 00          	cmpl   $0x0,-0x20(%ebp)
  102d4e:	75 21                	jne    102d71 <edit_file+0x5f>
  102d50:	83 ec 08             	sub    $0x8,%esp
  102d53:	8d 85 c8 fe ff ff    	lea    -0x138(%ebp),%eax
  102d59:	50                   	push   %eax
  102d5a:	68 4f 4a 12 00       	push   $0x124a4f
  102d5f:	e8 c5 ed 01 00       	call   121b29 <printf>
  102d64:	83 c4 10             	add    $0x10,%esp
  102d67:	b8 ff ff ff ff       	mov    $0xffffffff,%eax
  102d6c:	e9 15 02 00 00       	jmp    102f86 <edit_file+0x274>
  102d71:	83 ec 0c             	sub    $0xc,%esp
  102d74:	ff 75 e0             	push   -0x20(%ebp)
  102d77:	e8 04 77 01 00       	call   11a480 <get_file_size>
  102d7c:	83 c4 10             	add    $0x10,%esp
  102d7f:	89 45 dc             	mov    %eax,-0x24(%ebp)
  102d82:	8b 45 dc             	mov    -0x24(%ebp),%eax
  102d85:	83 c0 64             	add    $0x64,%eax
  102d88:	83 ec 08             	sub    $0x8,%esp
  102d8b:	68 8c 4a 12 00       	push   $0x124a8c
  102d90:	50                   	push   %eax
  102d91:	e8 08 2b 00 00       	call   10589e <malloc_wrap>
  102d96:	83 c4 10             	add    $0x10,%esp
  102d99:	89 45 d8             	mov    %eax,-0x28(%ebp)
  102d9c:	83 7d d8 00          	cmpl   $0x0,-0x28(%ebp)
  102da0:	75 18                	jne    102dba <edit_file+0xa8>
  102da2:	83 ec 0c             	sub    $0xc,%esp
  102da5:	ff 75 e0             	push   -0x20(%ebp)
  102da8:	e8 e2 36 01 00       	call   11648f <fclose>
  102dad:	83 c4 10             	add    $0x10,%esp
  102db0:	b8 ff ff ff ff       	mov    $0xffffffff,%eax
  102db5:	e9 cc 01 00 00       	jmp    102f86 <edit_file+0x274>
  102dba:	ff 75 e0             	push   -0x20(%ebp)
  102dbd:	ff 75 dc             	push   -0x24(%ebp)
  102dc0:	6a 01                	push   $0x1
  102dc2:	ff 75 d8             	push   -0x28(%ebp)
  102dc5:	e8 94 33 01 00       	call   11615e <fread>
  102dca:	83 c4 10             	add    $0x10,%esp
  102dcd:	89 45 d4             	mov    %eax,-0x2c(%ebp)
  102dd0:	8b 45 d4             	mov    -0x2c(%ebp),%eax
  102dd3:	3b 45 dc             	cmp    -0x24(%ebp),%eax
  102dd6:	74 36                	je     102e0e <edit_file+0xfc>
  102dd8:	83 ec 0c             	sub    $0xc,%esp
  102ddb:	68 61 4a 12 00       	push   $0x124a61
  102de0:	e8 c8 f5 01 00       	call   1223ad <perror>
  102de5:	83 c4 10             	add    $0x10,%esp
  102de8:	83 ec 0c             	sub    $0xc,%esp
  102deb:	ff 75 d8             	push   -0x28(%ebp)
  102dee:	e8 47 2b 00 00       	call   10593a <free>
  102df3:	83 c4 10             	add    $0x10,%esp
  102df6:	83 ec 0c             	sub    $0xc,%esp
  102df9:	ff 75 e0             	push   -0x20(%ebp)
  102dfc:	e8 8e 36 01 00       	call   11648f <fclose>
  102e01:	83 c4 10             	add    $0x10,%esp
  102e04:	b8 01 00 00 00       	mov    $0x1,%eax
  102e09:	e9 78 01 00 00       	jmp    102f86 <edit_file+0x274>
  102e0e:	8b 55 d8             	mov    -0x28(%ebp),%edx
  102e11:	8b 45 dc             	mov    -0x24(%ebp),%eax
  102e14:	01 d0                	add    %edx,%eax
  102e16:	c6 00 00             	movb   $0x0,(%eax)
  102e19:	83 ec 08             	sub    $0x8,%esp
  102e1c:	ff 75 d8             	push   -0x28(%ebp)
  102e1f:	68 74 4a 12 00       	push   $0x124a74
  102e24:	e8 00 ed 01 00       	call   121b29 <printf>
  102e29:	83 c4 10             	add    $0x10,%esp
  102e2c:	8b 45 dc             	mov    -0x24(%ebp),%eax
  102e2f:	89 45 f4             	mov    %eax,-0xc(%ebp)
  102e32:	c7 45 f0 00 00 00 00 	movl   $0x0,-0x10(%ebp)
  102e39:	eb 5c                	jmp    102e97 <edit_file+0x185>
  102e3b:	80 7d d3 08          	cmpb   $0x8,-0x2d(%ebp)
  102e3f:	75 2b                	jne    102e6c <edit_file+0x15a>
  102e41:	83 7d f4 00          	cmpl   $0x0,-0xc(%ebp)
  102e45:	7e 50                	jle    102e97 <edit_file+0x185>
  102e47:	83 6d f4 01          	subl   $0x1,-0xc(%ebp)
  102e4b:	83 6d f0 01          	subl   $0x1,-0x10(%ebp)
  102e4f:	8b 55 f4             	mov    -0xc(%ebp),%edx
  102e52:	8b 45 d8             	mov    -0x28(%ebp),%eax
  102e55:	01 d0                	add    %edx,%eax
  102e57:	c6 00 00             	movb   $0x0,(%eax)
  102e5a:	83 ec 0c             	sub    $0xc,%esp
  102e5d:	68 79 4a 12 00       	push   $0x124a79
  102e62:	e8 c2 ec 01 00       	call   121b29 <printf>
  102e67:	83 c4 10             	add    $0x10,%esp
  102e6a:	eb 2b                	jmp    102e97 <edit_file+0x185>
  102e6c:	8b 55 f4             	mov    -0xc(%ebp),%edx
  102e6f:	8b 45 d8             	mov    -0x28(%ebp),%eax
  102e72:	01 c2                	add    %eax,%edx
  102e74:	0f b6 45 d3          	movzbl -0x2d(%ebp),%eax
  102e78:	88 02                	mov    %al,(%edx)
  102e7a:	83 45 f4 01          	addl   $0x1,-0xc(%ebp)
  102e7e:	83 45 f0 01          	addl   $0x1,-0x10(%ebp)
  102e82:	0f be 45 d3          	movsbl -0x2d(%ebp),%eax
  102e86:	83 ec 08             	sub    $0x8,%esp
  102e89:	50                   	push   %eax
  102e8a:	68 7b 4a 12 00       	push   $0x124a7b
  102e8f:	e8 95 ec 01 00       	call   121b29 <printf>
  102e94:	83 c4 10             	add    $0x10,%esp
  102e97:	e8 e4 25 01 00       	call   115480 <getch_>
  102e9c:	88 45 d3             	mov    %al,-0x2d(%ebp)
  102e9f:	80 7d d3 0a          	cmpb   $0xa,-0x2d(%ebp)
  102ea3:	74 06                	je     102eab <edit_file+0x199>
  102ea5:	80 7d d3 ff          	cmpb   $0xff,-0x2d(%ebp)
  102ea9:	75 90                	jne    102e3b <edit_file+0x129>
  102eab:	8b 45 f4             	mov    -0xc(%ebp),%eax
  102eae:	39 45 dc             	cmp    %eax,-0x24(%ebp)
  102eb1:	76 26                	jbe    102ed9 <edit_file+0x1c7>
  102eb3:	8b 45 f4             	mov    -0xc(%ebp),%eax
  102eb6:	89 45 ec             	mov    %eax,-0x14(%ebp)
  102eb9:	eb 0f                	jmp    102eca <edit_file+0x1b8>
  102ebb:	8b 55 d8             	mov    -0x28(%ebp),%edx
  102ebe:	8b 45 ec             	mov    -0x14(%ebp),%eax
  102ec1:	01 d0                	add    %edx,%eax
  102ec3:	c6 00 00             	movb   $0x0,(%eax)
  102ec6:	83 45 ec 01          	addl   $0x1,-0x14(%ebp)
  102eca:	8b 45 f4             	mov    -0xc(%ebp),%eax
  102ecd:	8b 55 dc             	mov    -0x24(%ebp),%edx
  102ed0:	29 c2                	sub    %eax,%edx
  102ed2:	89 d0                	mov    %edx,%eax
  102ed4:	39 45 ec             	cmp    %eax,-0x14(%ebp)
  102ed7:	72 e2                	jb     102ebb <edit_file+0x1a9>
  102ed9:	83 ec 08             	sub    $0x8,%esp
  102edc:	ff 75 d8             	push   -0x28(%ebp)
  102edf:	68 7e 4a 12 00       	push   $0x124a7e
  102ee4:	e8 40 ec 01 00       	call   121b29 <printf>
  102ee9:	83 c4 10             	add    $0x10,%esp
  102eec:	83 ec 08             	sub    $0x8,%esp
  102eef:	8d 85 c8 fe ff ff    	lea    -0x138(%ebp),%eax
  102ef5:	50                   	push   %eax
  102ef6:	68 82 4a 12 00       	push   $0x124a82
  102efb:	e8 29 ec 01 00       	call   121b29 <printf>
  102f00:	83 c4 10             	add    $0x10,%esp
  102f03:	83 ec 0c             	sub    $0xc,%esp
  102f06:	ff 75 e0             	push   -0x20(%ebp)
  102f09:	e8 81 35 01 00       	call   11648f <fclose>
  102f0e:	83 c4 10             	add    $0x10,%esp
  102f11:	83 ec 08             	sub    $0x8,%esp
  102f14:	68 87 4a 12 00       	push   $0x124a87
  102f19:	8d 85 c8 fe ff ff    	lea    -0x138(%ebp),%eax
  102f1f:	50                   	push   %eax
  102f20:	e8 33 61 01 00       	call   119058 <fl_fopen>
  102f25:	83 c4 10             	add    $0x10,%esp
  102f28:	89 45 cc             	mov    %eax,-0x34(%ebp)
  102f2b:	8b 45 f4             	mov    -0xc(%ebp),%eax
  102f2e:	39 45 dc             	cmp    %eax,-0x24(%ebp)
  102f31:	73 08                	jae    102f3b <edit_file+0x229>
  102f33:	8b 45 f4             	mov    -0xc(%ebp),%eax
  102f36:	89 45 e8             	mov    %eax,-0x18(%ebp)
  102f39:	eb 06                	jmp    102f41 <edit_file+0x22f>
  102f3b:	8b 45 dc             	mov    -0x24(%ebp),%eax
  102f3e:	89 45 e8             	mov    %eax,-0x18(%ebp)
  102f41:	c7 45 e4 00 00 00 00 	movl   $0x0,-0x1c(%ebp)
  102f48:	eb 21                	jmp    102f6b <edit_file+0x259>
  102f4a:	8b 55 d8             	mov    -0x28(%ebp),%edx
  102f4d:	8b 45 e4             	mov    -0x1c(%ebp),%eax
  102f50:	01 d0                	add    %edx,%eax
  102f52:	0f b6 00             	movzbl (%eax),%eax
  102f55:	0f be c0             	movsbl %al,%eax
  102f58:	83 ec 08             	sub    $0x8,%esp
  102f5b:	ff 75 cc             	push   -0x34(%ebp)
  102f5e:	50                   	push   %eax
  102f5f:	e8 bf 33 01 00       	call   116323 <fputc>
  102f64:	83 c4 10             	add    $0x10,%esp
  102f67:	83 45 e4 01          	addl   $0x1,-0x1c(%ebp)
  102f6b:	8b 45 e8             	mov    -0x18(%ebp),%eax
  102f6e:	39 45 e4             	cmp    %eax,-0x1c(%ebp)
  102f71:	72 d7                	jb     102f4a <edit_file+0x238>
  102f73:	83 ec 0c             	sub    $0xc,%esp
  102f76:	ff 75 cc             	push   -0x34(%ebp)
  102f79:	e8 11 35 01 00       	call   11648f <fclose>
  102f7e:	83 c4 10             	add    $0x10,%esp
  102f81:	b8 00 00 00 00       	mov    $0x0,%eax
  102f86:	c9                   	leave  
  102f87:	c3                   	ret    

00102f88 <fat_list_init>:
  102f88:	55                   	push   %ebp
  102f89:	89 e5                	mov    %esp,%ebp
  102f8b:	8b 45 08             	mov    0x8(%ebp),%eax
  102f8e:	c7 40 04 00 00 00 00 	movl   $0x0,0x4(%eax)
  102f95:	8b 45 08             	mov    0x8(%ebp),%eax
  102f98:	8b 50 04             	mov    0x4(%eax),%edx
  102f9b:	8b 45 08             	mov    0x8(%ebp),%eax
  102f9e:	89 10                	mov    %edx,(%eax)
  102fa0:	90                   	nop
  102fa1:	5d                   	pop    %ebp
  102fa2:	c3                   	ret    

00102fa3 <fat_list_remove>:
  102fa3:	55                   	push   %ebp
  102fa4:	89 e5                	mov    %esp,%ebp
  102fa6:	8b 45 0c             	mov    0xc(%ebp),%eax
  102fa9:	8b 00                	mov    (%eax),%eax
  102fab:	85 c0                	test   %eax,%eax
  102fad:	75 0d                	jne    102fbc <fat_list_remove+0x19>
  102faf:	8b 45 0c             	mov    0xc(%ebp),%eax
  102fb2:	8b 50 04             	mov    0x4(%eax),%edx
  102fb5:	8b 45 08             	mov    0x8(%ebp),%eax
  102fb8:	89 10                	mov    %edx,(%eax)
  102fba:	eb 0e                	jmp    102fca <fat_list_remove+0x27>
  102fbc:	8b 45 0c             	mov    0xc(%ebp),%eax
  102fbf:	8b 00                	mov    (%eax),%eax
  102fc1:	8b 55 0c             	mov    0xc(%ebp),%edx
  102fc4:	8b 52 04             	mov    0x4(%edx),%edx
  102fc7:	89 50 04             	mov    %edx,0x4(%eax)
  102fca:	8b 45 0c             	mov    0xc(%ebp),%eax
  102fcd:	8b 40 04             	mov    0x4(%eax),%eax
  102fd0:	85 c0                	test   %eax,%eax
  102fd2:	75 0d                	jne    102fe1 <fat_list_remove+0x3e>
  102fd4:	8b 45 0c             	mov    0xc(%ebp),%eax
  102fd7:	8b 10                	mov    (%eax),%edx
  102fd9:	8b 45 08             	mov    0x8(%ebp),%eax
  102fdc:	89 50 04             	mov    %edx,0x4(%eax)
  102fdf:	eb 0d                	jmp    102fee <fat_list_remove+0x4b>
  102fe1:	8b 45 0c             	mov    0xc(%ebp),%eax
  102fe4:	8b 40 04             	mov    0x4(%eax),%eax
  102fe7:	8b 55 0c             	mov    0xc(%ebp),%edx
  102fea:	8b 12                	mov    (%edx),%edx
  102fec:	89 10                	mov    %edx,(%eax)
  102fee:	90                   	nop
  102fef:	5d                   	pop    %ebp
  102ff0:	c3                   	ret    

00102ff1 <fat_list_insert_after>:
  102ff1:	55                   	push   %ebp
  102ff2:	89 e5                	mov    %esp,%ebp
  102ff4:	8b 45 10             	mov    0x10(%ebp),%eax
  102ff7:	8b 55 0c             	mov    0xc(%ebp),%edx
  102ffa:	89 10                	mov    %edx,(%eax)
  102ffc:	8b 45 0c             	mov    0xc(%ebp),%eax
  102fff:	8b 50 04             	mov    0x4(%eax),%edx
  103002:	8b 45 10             	mov    0x10(%ebp),%eax
  103005:	89 50 04             	mov    %edx,0x4(%eax)
  103008:	8b 45 0c             	mov    0xc(%ebp),%eax
  10300b:	8b 40 04             	mov    0x4(%eax),%eax
  10300e:	85 c0                	test   %eax,%eax
  103010:	75 0b                	jne    10301d <fat_list_insert_after+0x2c>
  103012:	8b 45 08             	mov    0x8(%ebp),%eax
  103015:	8b 55 10             	mov    0x10(%ebp),%edx
  103018:	89 50 04             	mov    %edx,0x4(%eax)
  10301b:	eb 0b                	jmp    103028 <fat_list_insert_after+0x37>
  10301d:	8b 45 0c             	mov    0xc(%ebp),%eax
  103020:	8b 40 04             	mov    0x4(%eax),%eax
  103023:	8b 55 10             	mov    0x10(%ebp),%edx
  103026:	89 10                	mov    %edx,(%eax)
  103028:	8b 45 0c             	mov    0xc(%ebp),%eax
  10302b:	8b 55 10             	mov    0x10(%ebp),%edx
  10302e:	89 50 04             	mov    %edx,0x4(%eax)
  103031:	90                   	nop
  103032:	5d                   	pop    %ebp
  103033:	c3                   	ret    

00103034 <fat_list_insert_before>:
  103034:	55                   	push   %ebp
  103035:	89 e5                	mov    %esp,%ebp
  103037:	8b 45 0c             	mov    0xc(%ebp),%eax
  10303a:	8b 10                	mov    (%eax),%edx
  10303c:	8b 45 10             	mov    0x10(%ebp),%eax
  10303f:	89 10                	mov    %edx,(%eax)
  103041:	8b 45 10             	mov    0x10(%ebp),%eax
  103044:	8b 55 0c             	mov    0xc(%ebp),%edx
  103047:	89 50 04             	mov    %edx,0x4(%eax)
  10304a:	8b 45 0c             	mov    0xc(%ebp),%eax
  10304d:	8b 00                	mov    (%eax),%eax
  10304f:	85 c0                	test   %eax,%eax
  103051:	75 0a                	jne    10305d <fat_list_insert_before+0x29>
  103053:	8b 45 08             	mov    0x8(%ebp),%eax
  103056:	8b 55 10             	mov    0x10(%ebp),%edx
  103059:	89 10                	mov    %edx,(%eax)
  10305b:	eb 0b                	jmp    103068 <fat_list_insert_before+0x34>
  10305d:	8b 45 0c             	mov    0xc(%ebp),%eax
  103060:	8b 00                	mov    (%eax),%eax
  103062:	8b 55 10             	mov    0x10(%ebp),%edx
  103065:	89 50 04             	mov    %edx,0x4(%eax)
  103068:	8b 45 0c             	mov    0xc(%ebp),%eax
  10306b:	8b 55 10             	mov    0x10(%ebp),%edx
  10306e:	89 10                	mov    %edx,(%eax)
  103070:	90                   	nop
  103071:	5d                   	pop    %ebp
  103072:	c3                   	ret    

00103073 <fat_list_insert_first>:
  103073:	55                   	push   %ebp
  103074:	89 e5                	mov    %esp,%ebp
  103076:	8b 45 08             	mov    0x8(%ebp),%eax
  103079:	8b 00                	mov    (%eax),%eax
  10307b:	85 c0                	test   %eax,%eax
  10307d:	75 26                	jne    1030a5 <fat_list_insert_first+0x32>
  10307f:	8b 45 08             	mov    0x8(%ebp),%eax
  103082:	8b 55 0c             	mov    0xc(%ebp),%edx
  103085:	89 10                	mov    %edx,(%eax)
  103087:	8b 45 08             	mov    0x8(%ebp),%eax
  10308a:	8b 55 0c             	mov    0xc(%ebp),%edx
  10308d:	89 50 04             	mov    %edx,0x4(%eax)
  103090:	8b 45 0c             	mov    0xc(%ebp),%eax
  103093:	c7 00 00 00 00 00    	movl   $0x0,(%eax)
  103099:	8b 45 0c             	mov    0xc(%ebp),%eax
  10309c:	c7 40 04 00 00 00 00 	movl   $0x0,0x4(%eax)
  1030a3:	eb 14                	jmp    1030b9 <fat_list_insert_first+0x46>
  1030a5:	8b 45 08             	mov    0x8(%ebp),%eax
  1030a8:	8b 00                	mov    (%eax),%eax
  1030aa:	ff 75 0c             	push   0xc(%ebp)
  1030ad:	50                   	push   %eax
  1030ae:	ff 75 08             	push   0x8(%ebp)
  1030b1:	e8 7e ff ff ff       	call   103034 <fat_list_insert_before>
  1030b6:	83 c4 0c             	add    $0xc,%esp
  1030b9:	90                   	nop
  1030ba:	c9                   	leave  
  1030bb:	c3                   	ret    

001030bc <fat_list_insert_last>:
  1030bc:	55                   	push   %ebp
  1030bd:	89 e5                	mov    %esp,%ebp
  1030bf:	8b 45 08             	mov    0x8(%ebp),%eax
  1030c2:	8b 40 04             	mov    0x4(%eax),%eax
  1030c5:	85 c0                	test   %eax,%eax
  1030c7:	75 10                	jne    1030d9 <fat_list_insert_last+0x1d>
  1030c9:	ff 75 0c             	push   0xc(%ebp)
  1030cc:	ff 75 08             	push   0x8(%ebp)
  1030cf:	e8 9f ff ff ff       	call   103073 <fat_list_insert_first>
  1030d4:	83 c4 08             	add    $0x8,%esp
  1030d7:	eb 15                	jmp    1030ee <fat_list_insert_last+0x32>
  1030d9:	8b 45 08             	mov    0x8(%ebp),%eax
  1030dc:	8b 40 04             	mov    0x4(%eax),%eax
  1030df:	ff 75 0c             	push   0xc(%ebp)
  1030e2:	50                   	push   %eax
  1030e3:	ff 75 08             	push   0x8(%ebp)
  1030e6:	e8 06 ff ff ff       	call   102ff1 <fat_list_insert_after>
  1030eb:	83 c4 0c             	add    $0xc,%esp
  1030ee:	90                   	nop
  1030ef:	c9                   	leave  
  1030f0:	c3                   	ret    

001030f1 <fat_list_is_empty>:
  1030f1:	55                   	push   %ebp
  1030f2:	89 e5                	mov    %esp,%ebp
  1030f4:	8b 45 08             	mov    0x8(%ebp),%eax
  1030f7:	8b 00                	mov    (%eax),%eax
  1030f9:	85 c0                	test   %eax,%eax
  1030fb:	0f 94 c0             	sete   %al
  1030fe:	0f b6 c0             	movzbl %al,%eax
  103101:	5d                   	pop    %ebp
  103102:	c3                   	ret    

00103103 <fat_list_pop_head>:
  103103:	55                   	push   %ebp
  103104:	89 e5                	mov    %esp,%ebp
  103106:	83 ec 10             	sub    $0x10,%esp
  103109:	8b 45 08             	mov    0x8(%ebp),%eax
  10310c:	8b 00                	mov    (%eax),%eax
  10310e:	89 45 fc             	mov    %eax,-0x4(%ebp)
  103111:	83 7d fc 00          	cmpl   $0x0,-0x4(%ebp)
  103115:	74 0e                	je     103125 <fat_list_pop_head+0x22>
  103117:	ff 75 fc             	push   -0x4(%ebp)
  10311a:	ff 75 08             	push   0x8(%ebp)
  10311d:	e8 81 fe ff ff       	call   102fa3 <fat_list_remove>
  103122:	83 c4 08             	add    $0x8,%esp
  103125:	8b 45 fc             	mov    -0x4(%ebp),%eax
  103128:	c9                   	leave  
  103129:	c3                   	ret    

0010312a <parse_command>:
  10312a:	55                   	push   %ebp
  10312b:	89 e5                	mov    %esp,%ebp
  10312d:	53                   	push   %ebx
  10312e:	83 ec 14             	sub    $0x14,%esp
  103131:	68 a4 52 12 00       	push   $0x1252a4
  103136:	6a 24                	push   $0x24
  103138:	68 98 4a 12 00       	push   $0x124a98
  10313d:	68 ad 4a 12 00       	push   $0x124aad
  103142:	e8 ec da ff ff       	call   100c33 <printf_com>
  103147:	83 c4 10             	add    $0x10,%esp
  10314a:	83 ec 08             	sub    $0x8,%esp
  10314d:	68 a4 52 12 00       	push   $0x1252a4
  103152:	68 00 01 00 00       	push   $0x100
  103157:	e8 42 27 00 00       	call   10589e <malloc_wrap>
  10315c:	83 c4 10             	add    $0x10,%esp
  10315f:	89 45 ec             	mov    %eax,-0x14(%ebp)
  103162:	68 a4 52 12 00       	push   $0x1252a4
  103167:	6a 26                	push   $0x26
  103169:	68 98 4a 12 00       	push   $0x124a98
  10316e:	68 ad 4a 12 00       	push   $0x124aad
  103173:	e8 bb da ff ff       	call   100c33 <printf_com>
  103178:	83 c4 10             	add    $0x10,%esp
  10317b:	83 7d ec 00          	cmpl   $0x0,-0x14(%ebp)
  10317f:	75 1a                	jne    10319b <parse_command+0x71>
  103181:	83 ec 0c             	sub    $0xc,%esp
  103184:	68 ba 4a 12 00       	push   $0x124aba
  103189:	e8 9b e9 01 00       	call   121b29 <printf>
  10318e:	83 c4 10             	add    $0x10,%esp
  103191:	b8 00 00 00 00       	mov    $0x0,%eax
  103196:	e9 eb 01 00 00       	jmp    103386 <parse_command+0x25c>
  10319b:	83 7d ec 00          	cmpl   $0x0,-0x14(%ebp)
  10319f:	75 13                	jne    1031b4 <parse_command+0x8a>
  1031a1:	8b 45 0c             	mov    0xc(%ebp),%eax
  1031a4:	c7 00 ff ff ff ff    	movl   $0xffffffff,(%eax)
  1031aa:	b8 00 00 00 00       	mov    $0x0,%eax
  1031af:	e9 d2 01 00 00       	jmp    103386 <parse_command+0x25c>
  1031b4:	c7 45 f4 00 00 00 00 	movl   $0x0,-0xc(%ebp)
  1031bb:	83 ec 08             	sub    $0x8,%esp
  1031be:	68 cc 4a 12 00       	push   $0x124acc
  1031c3:	ff 75 08             	push   0x8(%ebp)
  1031c6:	e8 cf ff 01 00       	call   12319a <strtok>
  1031cb:	83 c4 10             	add    $0x10,%esp
  1031ce:	89 45 f0             	mov    %eax,-0x10(%ebp)
  1031d1:	e9 9b 01 00 00       	jmp    103371 <parse_command+0x247>
  1031d6:	8b 45 f0             	mov    -0x10(%ebp),%eax
  1031d9:	0f b6 00             	movzbl (%eax),%eax
  1031dc:	3c 22                	cmp    $0x22,%al
  1031de:	0f 85 fd 00 00 00    	jne    1032e1 <parse_command+0x1b7>
  1031e4:	8b 45 f0             	mov    -0x10(%ebp),%eax
  1031e7:	83 c0 01             	add    $0x1,%eax
  1031ea:	83 ec 08             	sub    $0x8,%esp
  1031ed:	6a 22                	push   $0x22
  1031ef:	50                   	push   %eax
  1031f0:	e8 78 ff 01 00       	call   12316d <strchr>
  1031f5:	83 c4 10             	add    $0x10,%esp
  1031f8:	89 45 e8             	mov    %eax,-0x18(%ebp)
  1031fb:	83 7d e8 00          	cmpl   $0x0,-0x18(%ebp)
  1031ff:	75 1d                	jne    10321e <parse_command+0xf4>
  103201:	8b 45 f4             	mov    -0xc(%ebp),%eax
  103204:	8d 14 85 00 00 00 00 	lea    0x0(,%eax,4),%edx
  10320b:	8b 45 ec             	mov    -0x14(%ebp),%eax
  10320e:	01 c2                	add    %eax,%edx
  103210:	8b 45 f0             	mov    -0x10(%ebp),%eax
  103213:	89 02                	mov    %eax,(%edx)
  103215:	83 45 f4 01          	addl   $0x1,-0xc(%ebp)
  103219:	e9 a9 00 00 00       	jmp    1032c7 <parse_command+0x19d>
  10321e:	8b 45 e8             	mov    -0x18(%ebp),%eax
  103221:	2b 45 f0             	sub    -0x10(%ebp),%eax
  103224:	83 c0 01             	add    $0x1,%eax
  103227:	89 c1                	mov    %eax,%ecx
  103229:	8b 45 f4             	mov    -0xc(%ebp),%eax
  10322c:	8d 14 85 00 00 00 00 	lea    0x0(,%eax,4),%edx
  103233:	8b 45 ec             	mov    -0x14(%ebp),%eax
  103236:	8d 1c 02             	lea    (%edx,%eax,1),%ebx
  103239:	83 ec 08             	sub    $0x8,%esp
  10323c:	68 a4 52 12 00       	push   $0x1252a4
  103241:	51                   	push   %ecx
  103242:	e8 57 26 00 00       	call   10589e <malloc_wrap>
  103247:	83 c4 10             	add    $0x10,%esp
  10324a:	89 03                	mov    %eax,(%ebx)
  10324c:	8b 45 f4             	mov    -0xc(%ebp),%eax
  10324f:	8d 14 85 00 00 00 00 	lea    0x0(,%eax,4),%edx
  103256:	8b 45 ec             	mov    -0x14(%ebp),%eax
  103259:	01 d0                	add    %edx,%eax
  10325b:	8b 00                	mov    (%eax),%eax
  10325d:	85 c0                	test   %eax,%eax
  10325f:	75 13                	jne    103274 <parse_command+0x14a>
  103261:	8b 45 0c             	mov    0xc(%ebp),%eax
  103264:	c7 00 ff ff ff ff    	movl   $0xffffffff,(%eax)
  10326a:	b8 00 00 00 00       	mov    $0x0,%eax
  10326f:	e9 12 01 00 00       	jmp    103386 <parse_command+0x25c>
  103274:	8b 45 e8             	mov    -0x18(%ebp),%eax
  103277:	2b 45 f0             	sub    -0x10(%ebp),%eax
  10327a:	83 e8 01             	sub    $0x1,%eax
  10327d:	89 c3                	mov    %eax,%ebx
  10327f:	8b 45 f0             	mov    -0x10(%ebp),%eax
  103282:	8d 50 01             	lea    0x1(%eax),%edx
  103285:	8b 45 f4             	mov    -0xc(%ebp),%eax
  103288:	8d 0c 85 00 00 00 00 	lea    0x0(,%eax,4),%ecx
  10328f:	8b 45 ec             	mov    -0x14(%ebp),%eax
  103292:	01 c8                	add    %ecx,%eax
  103294:	8b 00                	mov    (%eax),%eax
  103296:	83 ec 04             	sub    $0x4,%esp
  103299:	53                   	push   %ebx
  10329a:	52                   	push   %edx
  10329b:	50                   	push   %eax
  10329c:	e8 47 04 02 00       	call   1236e8 <strncpy>
  1032a1:	83 c4 10             	add    $0x10,%esp
  1032a4:	8b 45 f4             	mov    -0xc(%ebp),%eax
  1032a7:	8d 14 85 00 00 00 00 	lea    0x0(,%eax,4),%edx
  1032ae:	8b 45 ec             	mov    -0x14(%ebp),%eax
  1032b1:	01 d0                	add    %edx,%eax
  1032b3:	8b 10                	mov    (%eax),%edx
  1032b5:	8b 45 e8             	mov    -0x18(%ebp),%eax
  1032b8:	2b 45 f0             	sub    -0x10(%ebp),%eax
  1032bb:	83 e8 01             	sub    $0x1,%eax
  1032be:	01 d0                	add    %edx,%eax
  1032c0:	c6 00 00             	movb   $0x0,(%eax)
  1032c3:	83 45 f4 01          	addl   $0x1,-0xc(%ebp)
  1032c7:	83 ec 08             	sub    $0x8,%esp
  1032ca:	68 cc 4a 12 00       	push   $0x124acc
  1032cf:	6a 00                	push   $0x0
  1032d1:	e8 c4 fe 01 00       	call   12319a <strtok>
  1032d6:	83 c4 10             	add    $0x10,%esp
  1032d9:	89 45 f0             	mov    %eax,-0x10(%ebp)
  1032dc:	e9 90 00 00 00       	jmp    103371 <parse_command+0x247>
  1032e1:	83 ec 0c             	sub    $0xc,%esp
  1032e4:	ff 75 f0             	push   -0x10(%ebp)
  1032e7:	e8 91 01 02 00       	call   12347d <strlen>
  1032ec:	83 c4 10             	add    $0x10,%esp
  1032ef:	83 c0 01             	add    $0x1,%eax
  1032f2:	83 ec 0c             	sub    $0xc,%esp
  1032f5:	50                   	push   %eax
  1032f6:	e8 42 22 00 00       	call   10553d <kmalloc>
  1032fb:	83 c4 10             	add    $0x10,%esp
  1032fe:	89 c1                	mov    %eax,%ecx
  103300:	8b 45 f4             	mov    -0xc(%ebp),%eax
  103303:	8d 14 85 00 00 00 00 	lea    0x0(,%eax,4),%edx
  10330a:	8b 45 ec             	mov    -0x14(%ebp),%eax
  10330d:	01 d0                	add    %edx,%eax
  10330f:	89 ca                	mov    %ecx,%edx
  103311:	89 10                	mov    %edx,(%eax)
  103313:	8b 45 f4             	mov    -0xc(%ebp),%eax
  103316:	8d 14 85 00 00 00 00 	lea    0x0(,%eax,4),%edx
  10331d:	8b 45 ec             	mov    -0x14(%ebp),%eax
  103320:	01 d0                	add    %edx,%eax
  103322:	8b 00                	mov    (%eax),%eax
  103324:	85 c0                	test   %eax,%eax
  103326:	75 10                	jne    103338 <parse_command+0x20e>
  103328:	8b 45 0c             	mov    0xc(%ebp),%eax
  10332b:	c7 00 ff ff ff ff    	movl   $0xffffffff,(%eax)
  103331:	b8 00 00 00 00       	mov    $0x0,%eax
  103336:	eb 4e                	jmp    103386 <parse_command+0x25c>
  103338:	8b 45 f4             	mov    -0xc(%ebp),%eax
  10333b:	8d 14 85 00 00 00 00 	lea    0x0(,%eax,4),%edx
  103342:	8b 45 ec             	mov    -0x14(%ebp),%eax
  103345:	01 d0                	add    %edx,%eax
  103347:	8b 00                	mov    (%eax),%eax
  103349:	83 ec 08             	sub    $0x8,%esp
  10334c:	ff 75 f0             	push   -0x10(%ebp)
  10334f:	50                   	push   %eax
  103350:	e8 0c 02 02 00       	call   123561 <strcpy>
  103355:	83 c4 10             	add    $0x10,%esp
  103358:	83 45 f4 01          	addl   $0x1,-0xc(%ebp)
  10335c:	83 ec 08             	sub    $0x8,%esp
  10335f:	68 cc 4a 12 00       	push   $0x124acc
  103364:	6a 00                	push   $0x0
  103366:	e8 2f fe 01 00       	call   12319a <strtok>
  10336b:	83 c4 10             	add    $0x10,%esp
  10336e:	89 45 f0             	mov    %eax,-0x10(%ebp)
  103371:	83 7d f0 00          	cmpl   $0x0,-0x10(%ebp)
  103375:	0f 85 5b fe ff ff    	jne    1031d6 <parse_command+0xac>
  10337b:	8b 45 0c             	mov    0xc(%ebp),%eax
  10337e:	8b 55 f4             	mov    -0xc(%ebp),%edx
  103381:	89 10                	mov    %edx,(%eax)
  103383:	8b 45 ec             	mov    -0x14(%ebp),%eax
  103386:	8b 5d fc             	mov    -0x4(%ebp),%ebx
  103389:	c9                   	leave  
  10338a:	c3                   	ret    

0010338b <cls>:
  10338b:	55                   	push   %ebp
  10338c:	89 e5                	mov    %esp,%ebp
  10338e:	83 ec 08             	sub    $0x8,%esp
  103391:	e8 54 08 01 00       	call   113bea <clear_screen>
  103396:	83 ec 0c             	sub    $0xc,%esp
  103399:	6a 00                	push   $0x0
  10339b:	e8 a1 ec 00 00       	call   112041 <set_terminal_postion_x>
  1033a0:	83 c4 10             	add    $0x10,%esp
  1033a3:	83 ec 0c             	sub    $0xc,%esp
  1033a6:	6a 00                	push   $0x0
  1033a8:	e8 a2 ec 00 00       	call   11204f <set_terminal_postion_y>
  1033ad:	83 c4 10             	add    $0x10,%esp
  1033b0:	90                   	nop
  1033b1:	c9                   	leave  
  1033b2:	c3                   	ret    

001033b3 <move_back_one_folder>:
  1033b3:	55                   	push   %ebp
  1033b4:	89 e5                	mov    %esp,%ebp
  1033b6:	83 ec 18             	sub    $0x18,%esp
  1033b9:	83 7d 08 00          	cmpl   $0x0,0x8(%ebp)
  1033bd:	74 12                	je     1033d1 <move_back_one_folder+0x1e>
  1033bf:	83 ec 0c             	sub    $0xc,%esp
  1033c2:	ff 75 08             	push   0x8(%ebp)
  1033c5:	e8 b3 00 02 00       	call   12347d <strlen>
  1033ca:	83 c4 10             	add    $0x10,%esp
  1033cd:	85 c0                	test   %eax,%eax
  1033cf:	75 08                	jne    1033d9 <move_back_one_folder+0x26>
  1033d1:	8b 45 08             	mov    0x8(%ebp),%eax
  1033d4:	e9 ab 00 00 00       	jmp    103484 <move_back_one_folder+0xd1>
  1033d9:	83 ec 0c             	sub    $0xc,%esp
  1033dc:	ff 75 08             	push   0x8(%ebp)
  1033df:	e8 99 00 02 00       	call   12347d <strlen>
  1033e4:	83 c4 10             	add    $0x10,%esp
  1033e7:	89 45 f0             	mov    %eax,-0x10(%ebp)
  1033ea:	8b 45 f0             	mov    -0x10(%ebp),%eax
  1033ed:	83 c0 01             	add    $0x1,%eax
  1033f0:	83 ec 08             	sub    $0x8,%esp
  1033f3:	68 b4 52 12 00       	push   $0x1252b4
  1033f8:	50                   	push   %eax
  1033f9:	e8 a0 24 00 00       	call   10589e <malloc_wrap>
  1033fe:	83 c4 10             	add    $0x10,%esp
  103401:	89 45 ec             	mov    %eax,-0x14(%ebp)
  103404:	83 7d ec 00          	cmpl   $0x0,-0x14(%ebp)
  103408:	75 07                	jne    103411 <move_back_one_folder+0x5e>
  10340a:	b8 00 00 00 00       	mov    $0x0,%eax
  10340f:	eb 73                	jmp    103484 <move_back_one_folder+0xd1>
  103411:	83 ec 08             	sub    $0x8,%esp
  103414:	6a 2f                	push   $0x2f
  103416:	ff 75 08             	push   0x8(%ebp)
  103419:	e8 b6 08 02 00       	call   123cd4 <strrchr>
  10341e:	83 c4 10             	add    $0x10,%esp
  103421:	89 45 f4             	mov    %eax,-0xc(%ebp)
  103424:	83 7d f4 00          	cmpl   $0x0,-0xc(%ebp)
  103428:	75 13                	jne    10343d <move_back_one_folder+0x8a>
  10342a:	83 ec 08             	sub    $0x8,%esp
  10342d:	6a 5c                	push   $0x5c
  10342f:	ff 75 08             	push   0x8(%ebp)
  103432:	e8 9d 08 02 00       	call   123cd4 <strrchr>
  103437:	83 c4 10             	add    $0x10,%esp
  10343a:	89 45 f4             	mov    %eax,-0xc(%ebp)
  10343d:	83 7d f4 00          	cmpl   $0x0,-0xc(%ebp)
  103441:	75 16                	jne    103459 <move_back_one_folder+0xa6>
  103443:	83 ec 08             	sub    $0x8,%esp
  103446:	ff 75 08             	push   0x8(%ebp)
  103449:	ff 75 ec             	push   -0x14(%ebp)
  10344c:	e8 10 01 02 00       	call   123561 <strcpy>
  103451:	83 c4 10             	add    $0x10,%esp
  103454:	8b 45 ec             	mov    -0x14(%ebp),%eax
  103457:	eb 2b                	jmp    103484 <move_back_one_folder+0xd1>
  103459:	8b 45 f4             	mov    -0xc(%ebp),%eax
  10345c:	2b 45 08             	sub    0x8(%ebp),%eax
  10345f:	83 ec 04             	sub    $0x4,%esp
  103462:	50                   	push   %eax
  103463:	ff 75 08             	push   0x8(%ebp)
  103466:	ff 75 ec             	push   -0x14(%ebp)
  103469:	e8 7a 02 02 00       	call   1236e8 <strncpy>
  10346e:	83 c4 10             	add    $0x10,%esp
  103471:	8b 45 f4             	mov    -0xc(%ebp),%eax
  103474:	2b 45 08             	sub    0x8(%ebp),%eax
  103477:	89 c2                	mov    %eax,%edx
  103479:	8b 45 ec             	mov    -0x14(%ebp),%eax
  10347c:	01 d0                	add    %edx,%eax
  10347e:	c6 00 00             	movb   $0x0,(%eax)
  103481:	8b 45 ec             	mov    -0x14(%ebp),%eax
  103484:	c9                   	leave  
  103485:	c3                   	ret    

00103486 <free_command>:
  103486:	55                   	push   %ebp
  103487:	89 e5                	mov    %esp,%ebp
  103489:	83 ec 18             	sub    $0x18,%esp
  10348c:	c7 45 f4 00 00 00 00 	movl   $0x0,-0xc(%ebp)
  103493:	eb 3d                	jmp    1034d2 <free_command+0x4c>
  103495:	68 cc 52 12 00       	push   $0x1252cc
  10349a:	68 86 00 00 00       	push   $0x86
  10349f:	68 98 4a 12 00       	push   $0x124a98
  1034a4:	68 ad 4a 12 00       	push   $0x124aad
  1034a9:	e8 85 d7 ff ff       	call   100c33 <printf_com>
  1034ae:	83 c4 10             	add    $0x10,%esp
  1034b1:	8b 45 f4             	mov    -0xc(%ebp),%eax
  1034b4:	8d 14 85 00 00 00 00 	lea    0x0(,%eax,4),%edx
  1034bb:	8b 45 08             	mov    0x8(%ebp),%eax
  1034be:	01 d0                	add    %edx,%eax
  1034c0:	8b 00                	mov    (%eax),%eax
  1034c2:	83 ec 0c             	sub    $0xc,%esp
  1034c5:	50                   	push   %eax
  1034c6:	e8 6f 24 00 00       	call   10593a <free>
  1034cb:	83 c4 10             	add    $0x10,%esp
  1034ce:	83 45 f4 01          	addl   $0x1,-0xc(%ebp)
  1034d2:	8b 45 f4             	mov    -0xc(%ebp),%eax
  1034d5:	3b 45 0c             	cmp    0xc(%ebp),%eax
  1034d8:	7c bb                	jl     103495 <free_command+0xf>
  1034da:	83 ec 0c             	sub    $0xc,%esp
  1034dd:	ff 75 08             	push   0x8(%ebp)
  1034e0:	e8 55 24 00 00       	call   10593a <free>
  1034e5:	83 c4 10             	add    $0x10,%esp
  1034e8:	90                   	nop
  1034e9:	c9                   	leave  
  1034ea:	c3                   	ret    

001034eb <set_cwd>:
  1034eb:	55                   	push   %ebp
  1034ec:	89 e5                	mov    %esp,%ebp
  1034ee:	81 ec 18 01 00 00    	sub    $0x118,%esp
  1034f4:	83 7d 08 00          	cmpl   $0x0,0x8(%ebp)
  1034f8:	0f 84 e3 00 00 00    	je     1035e1 <set_cwd+0xf6>
  1034fe:	83 ec 04             	sub    $0x4,%esp
  103501:	68 04 01 00 00       	push   $0x104
  103506:	6a 00                	push   $0x0
  103508:	8d 85 f4 fe ff ff    	lea    -0x10c(%ebp),%eax
  10350e:	50                   	push   %eax
  10350f:	e8 27 fc 01 00       	call   12313b <memset>
  103514:	83 c4 10             	add    $0x10,%esp
  103517:	8b 45 08             	mov    0x8(%ebp),%eax
  10351a:	0f b6 00             	movzbl (%eax),%eax
  10351d:	3c 2f                	cmp    $0x2f,%al
  10351f:	75 13                	jne    103534 <set_cwd+0x49>
  103521:	83 ec 0c             	sub    $0xc,%esp
  103524:	ff 75 08             	push   0x8(%ebp)
  103527:	e8 1f 26 01 00       	call   115b4b <chdir>
  10352c:	83 c4 10             	add    $0x10,%esp
  10352f:	e9 ae 00 00 00       	jmp    1035e2 <set_cwd+0xf7>
  103534:	83 ec 08             	sub    $0x8,%esp
  103537:	68 ce 4a 12 00       	push   $0x124ace
  10353c:	ff 75 08             	push   0x8(%ebp)
  10353f:	e8 61 ff 01 00       	call   1234a5 <strcmp>
  103544:	83 c4 10             	add    $0x10,%esp
  103547:	85 c0                	test   %eax,%eax
  103549:	75 13                	jne    10355e <set_cwd+0x73>
  10354b:	83 ec 0c             	sub    $0xc,%esp
  10354e:	ff 75 08             	push   0x8(%ebp)
  103551:	e8 f5 25 01 00       	call   115b4b <chdir>
  103556:	83 c4 10             	add    $0x10,%esp
  103559:	e9 84 00 00 00       	jmp    1035e2 <set_cwd+0xf7>
  10355e:	e8 e2 27 01 00       	call   115d45 <getcwd>
  103563:	83 ec 08             	sub    $0x8,%esp
  103566:	50                   	push   %eax
  103567:	8d 85 f4 fe ff ff    	lea    -0x10c(%ebp),%eax
  10356d:	50                   	push   %eax
  10356e:	e8 ee ff 01 00       	call   123561 <strcpy>
  103573:	83 c4 10             	add    $0x10,%esp
  103576:	8b 45 08             	mov    0x8(%ebp),%eax
  103579:	0f b6 00             	movzbl (%eax),%eax
  10357c:	3c 2f                	cmp    $0x2f,%al
  10357e:	74 38                	je     1035b8 <set_cwd+0xcd>
  103580:	83 ec 0c             	sub    $0xc,%esp
  103583:	8d 85 f4 fe ff ff    	lea    -0x10c(%ebp),%eax
  103589:	50                   	push   %eax
  10358a:	e8 ee fe 01 00       	call   12347d <strlen>
  10358f:	83 c4 10             	add    $0x10,%esp
  103592:	83 e8 01             	sub    $0x1,%eax
  103595:	0f b6 84 05 f4 fe ff 	movzbl -0x10c(%ebp,%eax,1),%eax
  10359c:	ff 
  10359d:	3c 2f                	cmp    $0x2f,%al
  10359f:	74 17                	je     1035b8 <set_cwd+0xcd>
  1035a1:	83 ec 08             	sub    $0x8,%esp
  1035a4:	68 d1 4a 12 00       	push   $0x124ad1
  1035a9:	8d 85 f4 fe ff ff    	lea    -0x10c(%ebp),%eax
  1035af:	50                   	push   %eax
  1035b0:	e8 c0 00 02 00       	call   123675 <strcat>
  1035b5:	83 c4 10             	add    $0x10,%esp
  1035b8:	83 ec 08             	sub    $0x8,%esp
  1035bb:	ff 75 08             	push   0x8(%ebp)
  1035be:	8d 85 f4 fe ff ff    	lea    -0x10c(%ebp),%eax
  1035c4:	50                   	push   %eax
  1035c5:	e8 ab 00 02 00       	call   123675 <strcat>
  1035ca:	83 c4 10             	add    $0x10,%esp
  1035cd:	83 ec 0c             	sub    $0xc,%esp
  1035d0:	8d 85 f4 fe ff ff    	lea    -0x10c(%ebp),%eax
  1035d6:	50                   	push   %eax
  1035d7:	e8 6f 25 01 00       	call   115b4b <chdir>
  1035dc:	83 c4 10             	add    $0x10,%esp
  1035df:	eb 01                	jmp    1035e2 <set_cwd+0xf7>
  1035e1:	90                   	nop
  1035e2:	c9                   	leave  
  1035e3:	c3                   	ret    

001035e4 <help>:
  1035e4:	55                   	push   %ebp
  1035e5:	89 e5                	mov    %esp,%ebp
  1035e7:	83 ec 08             	sub    $0x8,%esp
  1035ea:	83 ec 0c             	sub    $0xc,%esp
  1035ed:	68 d3 4a 12 00       	push   $0x124ad3
  1035f2:	e8 32 e5 01 00       	call   121b29 <printf>
  1035f7:	83 c4 10             	add    $0x10,%esp
  1035fa:	83 ec 0c             	sub    $0xc,%esp
  1035fd:	68 e8 4a 12 00       	push   $0x124ae8
  103602:	e8 22 e5 01 00       	call   121b29 <printf>
  103607:	83 c4 10             	add    $0x10,%esp
  10360a:	83 ec 0c             	sub    $0xc,%esp
  10360d:	68 18 4b 12 00       	push   $0x124b18
  103612:	e8 12 e5 01 00       	call   121b29 <printf>
  103617:	83 c4 10             	add    $0x10,%esp
  10361a:	83 ec 0c             	sub    $0xc,%esp
  10361d:	68 54 4b 12 00       	push   $0x124b54
  103622:	e8 02 e5 01 00       	call   121b29 <printf>
  103627:	83 c4 10             	add    $0x10,%esp
  10362a:	83 ec 0c             	sub    $0xc,%esp
  10362d:	68 80 4b 12 00       	push   $0x124b80
  103632:	e8 f2 e4 01 00       	call   121b29 <printf>
  103637:	83 c4 10             	add    $0x10,%esp
  10363a:	83 ec 0c             	sub    $0xc,%esp
  10363d:	68 b0 4b 12 00       	push   $0x124bb0
  103642:	e8 e2 e4 01 00       	call   121b29 <printf>
  103647:	83 c4 10             	add    $0x10,%esp
  10364a:	83 ec 0c             	sub    $0xc,%esp
  10364d:	68 dc 4b 12 00       	push   $0x124bdc
  103652:	e8 d2 e4 01 00       	call   121b29 <printf>
  103657:	83 c4 10             	add    $0x10,%esp
  10365a:	83 ec 0c             	sub    $0xc,%esp
  10365d:	68 04 4c 12 00       	push   $0x124c04
  103662:	e8 c2 e4 01 00       	call   121b29 <printf>
  103667:	83 c4 10             	add    $0x10,%esp
  10366a:	83 ec 0c             	sub    $0xc,%esp
  10366d:	68 30 4c 12 00       	push   $0x124c30
  103672:	e8 b2 e4 01 00       	call   121b29 <printf>
  103677:	83 c4 10             	add    $0x10,%esp
  10367a:	83 ec 0c             	sub    $0xc,%esp
  10367d:	68 60 4c 12 00       	push   $0x124c60
  103682:	e8 a2 e4 01 00       	call   121b29 <printf>
  103687:	83 c4 10             	add    $0x10,%esp
  10368a:	83 ec 0c             	sub    $0xc,%esp
  10368d:	68 88 4c 12 00       	push   $0x124c88
  103692:	e8 92 e4 01 00       	call   121b29 <printf>
  103697:	83 c4 10             	add    $0x10,%esp
  10369a:	83 ec 0c             	sub    $0xc,%esp
  10369d:	68 c0 4c 12 00       	push   $0x124cc0
  1036a2:	e8 82 e4 01 00       	call   121b29 <printf>
  1036a7:	83 c4 10             	add    $0x10,%esp
  1036aa:	83 ec 0c             	sub    $0xc,%esp
  1036ad:	68 e8 4c 12 00       	push   $0x124ce8
  1036b2:	e8 72 e4 01 00       	call   121b29 <printf>
  1036b7:	83 c4 10             	add    $0x10,%esp
  1036ba:	90                   	nop
  1036bb:	c9                   	leave  
  1036bc:	c3                   	ret    

001036bd <get_cwd>:
  1036bd:	55                   	push   %ebp
  1036be:	89 e5                	mov    %esp,%ebp
  1036c0:	83 ec 18             	sub    $0x18,%esp
  1036c3:	a1 d9 f9 12 00       	mov    0x12f9d9,%eax
  1036c8:	83 f8 01             	cmp    $0x1,%eax
  1036cb:	74 0c                	je     1036d9 <get_cwd+0x1c>
  1036cd:	c7 45 f4 d1 4a 12 00 	movl   $0x124ad1,-0xc(%ebp)
  1036d4:	8b 45 f4             	mov    -0xc(%ebp),%eax
  1036d7:	eb 0b                	jmp    1036e4 <get_cwd+0x27>
  1036d9:	e8 67 26 01 00       	call   115d45 <getcwd>
  1036de:	89 45 f0             	mov    %eax,-0x10(%ebp)
  1036e1:	8b 45 f0             	mov    -0x10(%ebp),%eax
  1036e4:	c9                   	leave  
  1036e5:	c3                   	ret    

001036e6 <ls>:
  1036e6:	55                   	push   %ebp
  1036e7:	89 e5                	mov    %esp,%ebp
  1036e9:	81 ec 18 c8 00 00    	sub    $0xc818,%esp
  1036ef:	83 ec 08             	sub    $0x8,%esp
  1036f2:	68 d9 52 12 00       	push   $0x1252d9
  1036f7:	68 1c 4d 12 00       	push   $0x124d1c
  1036fc:	e8 32 d5 ff ff       	call   100c33 <printf_com>
  103701:	83 c4 10             	add    $0x10,%esp
  103704:	a1 d9 f9 12 00       	mov    0x12f9d9,%eax
  103709:	83 f8 01             	cmp    $0x1,%eax
  10370c:	74 12                	je     103720 <ls+0x3a>
  10370e:	83 ec 0c             	sub    $0xc,%esp
  103711:	68 37 4d 12 00       	push   $0x124d37
  103716:	e8 0e e4 01 00       	call   121b29 <printf>
  10371b:	83 c4 10             	add    $0x10,%esp
  10371e:	eb 29                	jmp    103749 <ls+0x63>
  103720:	e8 98 ff ff ff       	call   1036bd <get_cwd>
  103725:	89 c2                	mov    %eax,%edx
  103727:	83 ec 0c             	sub    $0xc,%esp
  10372a:	8d 45 f0             	lea    -0x10(%ebp),%eax
  10372d:	50                   	push   %eax
  10372e:	8d 45 f4             	lea    -0xc(%ebp),%eax
  103731:	50                   	push   %eax
  103732:	8d 85 f0 9b ff ff    	lea    -0x6410(%ebp),%eax
  103738:	50                   	push   %eax
  103739:	8d 85 f0 37 ff ff    	lea    -0xc810(%ebp),%eax
  10373f:	50                   	push   %eax
  103740:	52                   	push   %edx
  103741:	e8 b1 67 01 00       	call   119ef7 <fl_listdirectory>
  103746:	83 c4 20             	add    $0x20,%esp
  103749:	c9                   	leave  
  10374a:	c3                   	ret    

0010374b <date>:
  10374b:	55                   	push   %ebp
  10374c:	89 e5                	mov    %esp,%ebp
  10374e:	90                   	nop
  10374f:	5d                   	pop    %ebp
  103750:	c3                   	ret    

00103751 <draw_kmap>:
  103751:	55                   	push   %ebp
  103752:	89 e5                	mov    %esp,%ebp
  103754:	83 ec 08             	sub    $0x8,%esp
  103757:	83 ec 0c             	sub    $0xc,%esp
  10375a:	68 40 e4 16 00       	push   $0x16e440
  10375f:	e8 19 34 00 00       	call   106b7d <print_kernel_memory_map>
  103764:	83 c4 10             	add    $0x10,%esp
  103767:	90                   	nop
  103768:	c9                   	leave  
  103769:	c3                   	ret    

0010376a <shutdown>:
  10376a:	55                   	push   %ebp
  10376b:	89 e5                	mov    %esp,%ebp
  10376d:	83 ec 08             	sub    $0x8,%esp
  103770:	e8 68 32 01 00       	call   1169dd <fs_shutdown>
  103775:	e8 28 24 00 00       	call   105ba2 <kheap_shutdown>
  10377a:	e8 93 f6 00 00       	call   112e12 <acpiPowerOff>
  10377f:	90                   	nop
  103780:	c9                   	leave  
  103781:	c3                   	ret    

00103782 <key_map>:
  103782:	55                   	push   %ebp
  103783:	89 e5                	mov    %esp,%ebp
  103785:	83 ec 08             	sub    $0x8,%esp
  103788:	83 ec 0c             	sub    $0xc,%esp
  10378b:	68 44 4d 12 00       	push   $0x124d44
  103790:	e8 94 e3 01 00       	call   121b29 <printf>
  103795:	83 c4 10             	add    $0x10,%esp
  103798:	83 ec 0c             	sub    $0xc,%esp
  10379b:	68 4d 4d 12 00       	push   $0x124d4d
  1037a0:	e8 84 e3 01 00       	call   121b29 <printf>
  1037a5:	83 c4 10             	add    $0x10,%esp
  1037a8:	83 ec 0c             	sub    $0xc,%esp
  1037ab:	68 66 4d 12 00       	push   $0x124d66
  1037b0:	e8 74 e3 01 00       	call   121b29 <printf>
  1037b5:	83 c4 10             	add    $0x10,%esp
  1037b8:	83 ec 0c             	sub    $0xc,%esp
  1037bb:	68 7f 4d 12 00       	push   $0x124d7f
  1037c0:	e8 64 e3 01 00       	call   121b29 <printf>
  1037c5:	83 c4 10             	add    $0x10,%esp
  1037c8:	83 ec 0c             	sub    $0xc,%esp
  1037cb:	68 9d 4d 12 00       	push   $0x124d9d
  1037d0:	e8 54 e3 01 00       	call   121b29 <printf>
  1037d5:	83 c4 10             	add    $0x10,%esp
  1037d8:	83 ec 0c             	sub    $0xc,%esp
  1037db:	68 b7 4d 12 00       	push   $0x124db7
  1037e0:	e8 44 e3 01 00       	call   121b29 <printf>
  1037e5:	83 c4 10             	add    $0x10,%esp
  1037e8:	83 ec 0c             	sub    $0xc,%esp
  1037eb:	68 d4 4d 12 00       	push   $0x124dd4
  1037f0:	e8 34 e3 01 00       	call   121b29 <printf>
  1037f5:	83 c4 10             	add    $0x10,%esp
  1037f8:	90                   	nop
  1037f9:	c9                   	leave  
  1037fa:	c3                   	ret    

001037fb <print_iris>:
  1037fb:	55                   	push   %ebp
  1037fc:	89 e5                	mov    %esp,%ebp
  1037fe:	83 ec 08             	sub    $0x8,%esp
  103801:	83 ec 0c             	sub    $0xc,%esp
  103804:	68 f3 4d 12 00       	push   $0x124df3
  103809:	e8 1b e3 01 00       	call   121b29 <printf>
  10380e:	83 c4 10             	add    $0x10,%esp
  103811:	83 ec 0c             	sub    $0xc,%esp
  103814:	68 fb 4d 12 00       	push   $0x124dfb
  103819:	e8 0b e3 01 00       	call   121b29 <printf>
  10381e:	83 c4 10             	add    $0x10,%esp
  103821:	83 ec 0c             	sub    $0xc,%esp
  103824:	68 fd 4d 12 00       	push   $0x124dfd
  103829:	e8 fb e2 01 00       	call   121b29 <printf>
  10382e:	83 c4 10             	add    $0x10,%esp
  103831:	83 ec 0c             	sub    $0xc,%esp
  103834:	68 05 4e 12 00       	push   $0x124e05
  103839:	e8 eb e2 01 00       	call   121b29 <printf>
  10383e:	83 c4 10             	add    $0x10,%esp
  103841:	83 ec 0c             	sub    $0xc,%esp
  103844:	68 07 4e 12 00       	push   $0x124e07
  103849:	e8 db e2 01 00       	call   121b29 <printf>
  10384e:	83 c4 10             	add    $0x10,%esp
  103851:	83 ec 0c             	sub    $0xc,%esp
  103854:	68 0f 4e 12 00       	push   $0x124e0f
  103859:	e8 cb e2 01 00       	call   121b29 <printf>
  10385e:	83 c4 10             	add    $0x10,%esp
  103861:	83 ec 0c             	sub    $0xc,%esp
  103864:	68 11 4e 12 00       	push   $0x124e11
  103869:	e8 bb e2 01 00       	call   121b29 <printf>
  10386e:	83 c4 10             	add    $0x10,%esp
  103871:	83 ec 0c             	sub    $0xc,%esp
  103874:	68 19 4e 12 00       	push   $0x124e19
  103879:	e8 ab e2 01 00       	call   121b29 <printf>
  10387e:	83 c4 10             	add    $0x10,%esp
  103881:	83 ec 0c             	sub    $0xc,%esp
  103884:	68 1b 4e 12 00       	push   $0x124e1b
  103889:	e8 9b e2 01 00       	call   121b29 <printf>
  10388e:	83 c4 10             	add    $0x10,%esp
  103891:	90                   	nop
  103892:	c9                   	leave  
  103893:	c3                   	ret    

00103894 <get_primary_dev_num>:
  103894:	55                   	push   %ebp
  103895:	89 e5                	mov    %esp,%ebp
  103897:	83 ec 18             	sub    $0x18,%esp
  10389a:	c7 45 f4 00 00 00 00 	movl   $0x0,-0xc(%ebp)
  1038a1:	83 ec 04             	sub    $0x4,%esp
  1038a4:	8d 45 f4             	lea    -0xc(%ebp),%eax
  1038a7:	50                   	push   %eax
  1038a8:	68 20 4e 12 00       	push   $0x124e20
  1038ad:	ff 75 08             	push   0x8(%ebp)
  1038b0:	e8 51 1b 01 00       	call   115406 <sscanf_>
  1038b5:	83 c4 10             	add    $0x10,%esp
  1038b8:	83 f8 01             	cmp    $0x1,%eax
  1038bb:	75 05                	jne    1038c2 <get_primary_dev_num+0x2e>
  1038bd:	8b 45 f4             	mov    -0xc(%ebp),%eax
  1038c0:	eb 05                	jmp    1038c7 <get_primary_dev_num+0x33>
  1038c2:	b8 ff ff ff ff       	mov    $0xffffffff,%eax
  1038c7:	c9                   	leave  
  1038c8:	c3                   	ret    

001038c9 <get_path_without_dev>:
  1038c9:	55                   	push   %ebp
  1038ca:	89 e5                	mov    %esp,%ebp
  1038cc:	83 ec 18             	sub    $0x18,%esp
  1038cf:	83 ec 08             	sub    $0x8,%esp
  1038d2:	6a 2f                	push   $0x2f
  1038d4:	ff 75 08             	push   0x8(%ebp)
  1038d7:	e8 91 f8 01 00       	call   12316d <strchr>
  1038dc:	83 c4 10             	add    $0x10,%esp
  1038df:	89 45 f4             	mov    %eax,-0xc(%ebp)
  1038e2:	83 7d f4 00          	cmpl   $0x0,-0xc(%ebp)
  1038e6:	74 05                	je     1038ed <get_path_without_dev+0x24>
  1038e8:	8b 45 f4             	mov    -0xc(%ebp),%eax
  1038eb:	eb 03                	jmp    1038f0 <get_path_without_dev+0x27>
  1038ed:	8b 45 08             	mov    0x8(%ebp),%eax
  1038f0:	c9                   	leave  
  1038f1:	c3                   	ret    

001038f2 <cmd>:
  1038f2:	55                   	push   %ebp
  1038f3:	89 e5                	mov    %esp,%ebp
  1038f5:	57                   	push   %edi
  1038f6:	56                   	push   %esi
  1038f7:	53                   	push   %ebx
  1038f8:	81 ec 8c 28 00 00    	sub    $0x288c,%esp
  1038fe:	68 dc 52 12 00       	push   $0x1252dc
  103903:	68 1b 01 00 00       	push   $0x11b
  103908:	68 98 4a 12 00       	push   $0x124a98
  10390d:	68 ad 4a 12 00       	push   $0x124aad
  103912:	e8 1c d3 ff ff       	call   100c33 <printf_com>
  103917:	83 c4 10             	add    $0x10,%esp
  10391a:	83 ec 08             	sub    $0x8,%esp
  10391d:	8d 45 ac             	lea    -0x54(%ebp),%eax
  103920:	50                   	push   %eax
  103921:	ff 75 08             	push   0x8(%ebp)
  103924:	e8 01 f8 ff ff       	call   10312a <parse_command>
  103929:	83 c4 10             	add    $0x10,%esp
  10392c:	89 45 cc             	mov    %eax,-0x34(%ebp)
  10392f:	68 dc 52 12 00       	push   $0x1252dc
  103934:	68 1e 01 00 00       	push   $0x11e
  103939:	68 98 4a 12 00       	push   $0x124a98
  10393e:	68 ad 4a 12 00       	push   $0x124aad
  103943:	e8 eb d2 ff ff       	call   100c33 <printf_com>
  103948:	83 c4 10             	add    $0x10,%esp
  10394b:	83 7d cc 00          	cmpl   $0x0,-0x34(%ebp)
  10394f:	75 36                	jne    103987 <cmd+0x95>
  103951:	83 ec 0c             	sub    $0xc,%esp
  103954:	68 24 4e 12 00       	push   $0x124e24
  103959:	e8 cb e1 01 00       	call   121b29 <printf>
  10395e:	83 c4 10             	add    $0x10,%esp
  103961:	68 dc 52 12 00       	push   $0x1252dc
  103966:	68 22 01 00 00       	push   $0x122
  10396b:	68 98 4a 12 00       	push   $0x124a98
  103970:	68 ad 4a 12 00       	push   $0x124aad
  103975:	e8 b9 d2 ff ff       	call   100c33 <printf_com>
  10397a:	83 c4 10             	add    $0x10,%esp
  10397d:	b8 01 00 00 00       	mov    $0x1,%eax
  103982:	e9 ed 0a 00 00       	jmp    104474 <cmd+0xb82>
  103987:	c7 45 e4 00 00 00 00 	movl   $0x0,-0x1c(%ebp)
  10398e:	eb 26                	jmp    1039b6 <cmd+0xc4>
  103990:	8b 45 e4             	mov    -0x1c(%ebp),%eax
  103993:	8d 14 85 00 00 00 00 	lea    0x0(,%eax,4),%edx
  10399a:	8b 45 cc             	mov    -0x34(%ebp),%eax
  10399d:	01 d0                	add    %edx,%eax
  10399f:	8b 00                	mov    (%eax),%eax
  1039a1:	83 ec 08             	sub    $0x8,%esp
  1039a4:	50                   	push   %eax
  1039a5:	68 46 4e 12 00       	push   $0x124e46
  1039aa:	e8 61 40 00 00       	call   107a10 <printf_debug>
  1039af:	83 c4 10             	add    $0x10,%esp
  1039b2:	83 45 e4 01          	addl   $0x1,-0x1c(%ebp)
  1039b6:	8b 45 ac             	mov    -0x54(%ebp),%eax
  1039b9:	39 45 e4             	cmp    %eax,-0x1c(%ebp)
  1039bc:	72 d2                	jb     103990 <cmd+0x9e>
  1039be:	68 dc 52 12 00       	push   $0x1252dc
  1039c3:	68 2b 01 00 00       	push   $0x12b
  1039c8:	68 98 4a 12 00       	push   $0x124a98
  1039cd:	68 ad 4a 12 00       	push   $0x124aad
  1039d2:	e8 5c d2 ff ff       	call   100c33 <printf_com>
  1039d7:	83 c4 10             	add    $0x10,%esp
  1039da:	8b 45 cc             	mov    -0x34(%ebp),%eax
  1039dd:	8b 00                	mov    (%eax),%eax
  1039df:	83 ec 08             	sub    $0x8,%esp
  1039e2:	68 4c 4e 12 00       	push   $0x124e4c
  1039e7:	50                   	push   %eax
  1039e8:	e8 b8 fa 01 00       	call   1234a5 <strcmp>
  1039ed:	83 c4 10             	add    $0x10,%esp
  1039f0:	85 c0                	test   %eax,%eax
  1039f2:	0f 85 b4 00 00 00    	jne    103aac <cmd+0x1ba>
  1039f8:	8b 45 ac             	mov    -0x54(%ebp),%eax
  1039fb:	83 f8 01             	cmp    $0x1,%eax
