
AthenX.bin:     file format elf32-i386


Disassembly of section .text:

00100000 <__kernel_text_section_start>:
  100000:	02 b0 ad 1b 03 00    	add    0x31bad(%eax),%dh
  100006:	00 00                	add    %al,(%eax)
  100008:	fb                   	sti    
  100009:	4f                   	dec    %edi
  10000a:	52                   	push   %edx
  10000b:	e4                   	.byte 0xe4

0010000c <rdtsc>:
  10000c:	55                   	push   %ebp
  10000d:	89 e5                	mov    %esp,%ebp
  10000f:	57                   	push   %edi
  100010:	56                   	push   %esi
  100011:	53                   	push   %ebx
  100012:	83 ec 1c             	sub    $0x1c,%esp
  100015:	0f 31                	rdtsc  
  100017:	89 45 ec             	mov    %eax,-0x14(%ebp)
  10001a:	89 55 e8             	mov    %edx,-0x18(%ebp)
  10001d:	8b 45 e8             	mov    -0x18(%ebp),%eax
  100020:	ba 00 00 00 00       	mov    $0x0,%edx
  100025:	89 c2                	mov    %eax,%edx
  100027:	b8 00 00 00 00       	mov    $0x0,%eax
  10002c:	8b 75 ec             	mov    -0x14(%ebp),%esi
  10002f:	bf 00 00 00 00       	mov    $0x0,%edi
  100034:	89 45 d8             	mov    %eax,-0x28(%ebp)
  100037:	89 55 dc             	mov    %edx,-0x24(%ebp)
  10003a:	09 f0                	or     %esi,%eax
  10003c:	89 c1                	mov    %eax,%ecx
  10003e:	8b 45 dc             	mov    -0x24(%ebp),%eax
  100041:	09 f8                	or     %edi,%eax
  100043:	89 c3                	mov    %eax,%ebx
  100045:	89 c8                	mov    %ecx,%eax
  100047:	89 da                	mov    %ebx,%edx
  100049:	83 c4 1c             	add    $0x1c,%esp
  10004c:	5b                   	pop    %ebx
  10004d:	5e                   	pop    %esi
  10004e:	5f                   	pop    %edi
  10004f:	5d                   	pop    %ebp
  100050:	c3                   	ret    

00100051 <read_memory_address>:
  100051:	55                   	push   %ebp
  100052:	89 e5                	mov    %esp,%ebp
  100054:	8b 45 08             	mov    0x8(%ebp),%eax
  100057:	8b 00                	mov    (%eax),%eax
  100059:	5d                   	pop    %ebp
  10005a:	c3                   	ret    

0010005b <srand>:
  10005b:	55                   	push   %ebp
  10005c:	89 e5                	mov    %esp,%ebp
  10005e:	56                   	push   %esi
  10005f:	53                   	push   %ebx
  100060:	83 ec 30             	sub    $0x30,%esp
  100063:	8d 45 08             	lea    0x8(%ebp),%eax
  100066:	89 45 f4             	mov    %eax,-0xc(%ebp)
  100069:	c7 45 f0 0c 00 10 00 	movl   $0x10000c,-0x10(%ebp)
  100070:	ff 75 f4             	push   -0xc(%ebp)
  100073:	e8 d9 ff ff ff       	call   100051 <read_memory_address>
  100078:	83 c4 04             	add    $0x4,%esp
  10007b:	89 45 ec             	mov    %eax,-0x14(%ebp)
  10007e:	ff 75 f0             	push   -0x10(%ebp)
  100081:	e8 cb ff ff ff       	call   100051 <read_memory_address>
  100086:	83 c4 04             	add    $0x4,%esp
  100089:	89 45 e8             	mov    %eax,-0x18(%ebp)
  10008c:	8d 45 c8             	lea    -0x38(%ebp),%eax
  10008f:	83 ec 0c             	sub    $0xc,%esp
  100092:	50                   	push   %eax
  100093:	e8 2f c9 00 00       	call   10c9c7 <get_time>
  100098:	83 c4 0c             	add    $0xc,%esp
  10009b:	e8 6c ff ff ff       	call   10000c <rdtsc>
  1000a0:	89 45 e0             	mov    %eax,-0x20(%ebp)
  1000a3:	89 55 e4             	mov    %edx,-0x1c(%ebp)
  1000a6:	8b 45 08             	mov    0x8(%ebp),%eax
  1000a9:	33 45 ec             	xor    -0x14(%ebp),%eax
  1000ac:	33 45 e8             	xor    -0x18(%ebp),%eax
  1000af:	8b 55 c8             	mov    -0x38(%ebp),%edx
  1000b2:	c1 e2 1a             	shl    $0x1a,%edx
  1000b5:	31 c2                	xor    %eax,%edx
  1000b7:	8b 45 cc             	mov    -0x34(%ebp),%eax
  1000ba:	c1 e0 14             	shl    $0x14,%eax
  1000bd:	31 c2                	xor    %eax,%edx
  1000bf:	8b 45 d0             	mov    -0x30(%ebp),%eax
  1000c2:	c1 e0 0e             	shl    $0xe,%eax
  1000c5:	31 c2                	xor    %eax,%edx
  1000c7:	8b 45 d4             	mov    -0x2c(%ebp),%eax
  1000ca:	c1 e0 08             	shl    $0x8,%eax
  1000cd:	31 c2                	xor    %eax,%edx
  1000cf:	8b 45 d8             	mov    -0x28(%ebp),%eax
  1000d2:	c1 e0 04             	shl    $0x4,%eax
  1000d5:	31 c2                	xor    %eax,%edx
  1000d7:	8b 45 dc             	mov    -0x24(%ebp),%eax
  1000da:	31 c2                	xor    %eax,%edx
  1000dc:	8b 45 e0             	mov    -0x20(%ebp),%eax
  1000df:	89 d1                	mov    %edx,%ecx
  1000e1:	31 c1                	xor    %eax,%ecx
  1000e3:	8b 45 e0             	mov    -0x20(%ebp),%eax
  1000e6:	8b 55 e4             	mov    -0x1c(%ebp),%edx
  1000e9:	89 d0                	mov    %edx,%eax
  1000eb:	31 d2                	xor    %edx,%edx
  1000ed:	89 c3                	mov    %eax,%ebx
  1000ef:	89 d6                	mov    %edx,%esi
  1000f1:	89 d8                	mov    %ebx,%eax
  1000f3:	31 c8                	xor    %ecx,%eax
  1000f5:	a3 00 80 12 00       	mov    %eax,0x128000
  1000fa:	90                   	nop
  1000fb:	8d 65 f8             	lea    -0x8(%ebp),%esp
  1000fe:	5b                   	pop    %ebx
  1000ff:	5e                   	pop    %esi
  100100:	5d                   	pop    %ebp
  100101:	c3                   	ret    

00100102 <rand>:
  100102:	55                   	push   %ebp
  100103:	89 e5                	mov    %esp,%ebp
  100105:	a1 00 80 12 00       	mov    0x128000,%eax
  10010a:	69 c0 6d 4e c6 41    	imul   $0x41c64e6d,%eax,%eax
  100110:	05 39 30 00 00       	add    $0x3039,%eax
  100115:	25 ff ff ff 7f       	and    $0x7fffffff,%eax
  10011a:	a3 00 80 12 00       	mov    %eax,0x128000
  10011f:	a1 00 80 12 00       	mov    0x128000,%eax
  100124:	5d                   	pop    %ebp
  100125:	c3                   	ret    

00100126 <gdt_set_entry>:
  100126:	55                   	push   %ebp
  100127:	89 e5                	mov    %esp,%ebp
  100129:	83 ec 18             	sub    $0x18,%esp
  10012c:	8b 55 14             	mov    0x14(%ebp),%edx
  10012f:	8b 45 18             	mov    0x18(%ebp),%eax
  100132:	88 55 ec             	mov    %dl,-0x14(%ebp)
  100135:	88 45 e8             	mov    %al,-0x18(%ebp)
  100138:	8b 45 08             	mov    0x8(%ebp),%eax
  10013b:	c1 e0 03             	shl    $0x3,%eax
  10013e:	05 20 90 13 00       	add    $0x139020,%eax
  100143:	89 45 fc             	mov    %eax,-0x4(%ebp)
  100146:	8b 45 10             	mov    0x10(%ebp),%eax
  100149:	89 c2                	mov    %eax,%edx
  10014b:	8b 45 fc             	mov    -0x4(%ebp),%eax
  10014e:	66 89 10             	mov    %dx,(%eax)
  100151:	8b 45 0c             	mov    0xc(%ebp),%eax
  100154:	89 c2                	mov    %eax,%edx
  100156:	8b 45 fc             	mov    -0x4(%ebp),%eax
  100159:	66 89 50 02          	mov    %dx,0x2(%eax)
  10015d:	8b 45 0c             	mov    0xc(%ebp),%eax
  100160:	c1 e8 10             	shr    $0x10,%eax
  100163:	89 c2                	mov    %eax,%edx
  100165:	8b 45 fc             	mov    -0x4(%ebp),%eax
  100168:	88 50 04             	mov    %dl,0x4(%eax)
  10016b:	8b 45 fc             	mov    -0x4(%ebp),%eax
  10016e:	0f b6 55 ec          	movzbl -0x14(%ebp),%edx
  100172:	88 50 05             	mov    %dl,0x5(%eax)
  100175:	8b 45 10             	mov    0x10(%ebp),%eax
  100178:	c1 e8 10             	shr    $0x10,%eax
  10017b:	83 e0 0f             	and    $0xf,%eax
  10017e:	89 c2                	mov    %eax,%edx
  100180:	8b 45 fc             	mov    -0x4(%ebp),%eax
  100183:	88 50 06             	mov    %dl,0x6(%eax)
  100186:	8b 45 fc             	mov    -0x4(%ebp),%eax
  100189:	0f b6 40 06          	movzbl 0x6(%eax),%eax
  10018d:	89 c2                	mov    %eax,%edx
  10018f:	0f b6 45 e8          	movzbl -0x18(%ebp),%eax
  100193:	83 e0 f0             	and    $0xfffffff0,%eax
  100196:	09 d0                	or     %edx,%eax
  100198:	89 c2                	mov    %eax,%edx
  10019a:	8b 45 fc             	mov    -0x4(%ebp),%eax
  10019d:	88 50 06             	mov    %dl,0x6(%eax)
  1001a0:	8b 45 0c             	mov    0xc(%ebp),%eax
  1001a3:	c1 e8 18             	shr    $0x18,%eax
  1001a6:	89 c2                	mov    %eax,%edx
  1001a8:	8b 45 fc             	mov    -0x4(%ebp),%eax
  1001ab:	88 50 07             	mov    %dl,0x7(%eax)
  1001ae:	90                   	nop
  1001af:	c9                   	leave  
  1001b0:	c3                   	ret    

001001b1 <gdt_init>:
  1001b1:	55                   	push   %ebp
  1001b2:	89 e5                	mov    %esp,%ebp
  1001b4:	83 ec 08             	sub    $0x8,%esp
  1001b7:	66 c7 05 00 90 13 00 	movw   $0x3f,0x139000
  1001be:	3f 00 
  1001c0:	b8 20 90 13 00       	mov    $0x139020,%eax
  1001c5:	a3 02 90 13 00       	mov    %eax,0x139002
  1001ca:	6a 00                	push   $0x0
  1001cc:	6a 00                	push   $0x0
  1001ce:	6a 00                	push   $0x0
  1001d0:	6a 00                	push   $0x0
  1001d2:	6a 00                	push   $0x0
  1001d4:	e8 4d ff ff ff       	call   100126 <gdt_set_entry>
  1001d9:	83 c4 14             	add    $0x14,%esp
  1001dc:	68 cf 00 00 00       	push   $0xcf
  1001e1:	68 9a 00 00 00       	push   $0x9a
  1001e6:	6a ff                	push   $0xffffffff
  1001e8:	6a 00                	push   $0x0
  1001ea:	6a 01                	push   $0x1
  1001ec:	e8 35 ff ff ff       	call   100126 <gdt_set_entry>
  1001f1:	83 c4 14             	add    $0x14,%esp
  1001f4:	68 cf 00 00 00       	push   $0xcf
  1001f9:	68 92 00 00 00       	push   $0x92
  1001fe:	6a ff                	push   $0xffffffff
  100200:	6a 00                	push   $0x0
  100202:	6a 02                	push   $0x2
  100204:	e8 1d ff ff ff       	call   100126 <gdt_set_entry>
  100209:	83 c4 14             	add    $0x14,%esp
  10020c:	68 cf 00 00 00       	push   $0xcf
  100211:	68 fa 00 00 00       	push   $0xfa
  100216:	6a ff                	push   $0xffffffff
  100218:	6a 00                	push   $0x0
  10021a:	6a 03                	push   $0x3
  10021c:	e8 05 ff ff ff       	call   100126 <gdt_set_entry>
  100221:	83 c4 14             	add    $0x14,%esp
  100224:	68 cf 00 00 00       	push   $0xcf
  100229:	68 f2 00 00 00       	push   $0xf2
  10022e:	6a ff                	push   $0xffffffff
  100230:	6a 00                	push   $0x0
  100232:	6a 04                	push   $0x4
  100234:	e8 ed fe ff ff       	call   100126 <gdt_set_entry>
  100239:	83 c4 14             	add    $0x14,%esp
  10023c:	b8 00 90 13 00       	mov    $0x139000,%eax
  100241:	83 ec 0c             	sub    $0xc,%esp
  100244:	50                   	push   %eax
  100245:	e8 a6 18 02 00       	call   121af0 <load_gdt>
  10024a:	83 c4 10             	add    $0x10,%esp
  10024d:	90                   	nop
  10024e:	c9                   	leave  
  10024f:	c3                   	ret    

00100250 <idt_set_entry>:
  100250:	55                   	push   %ebp
  100251:	89 e5                	mov    %esp,%ebp
  100253:	83 ec 18             	sub    $0x18,%esp
  100256:	8b 45 10             	mov    0x10(%ebp),%eax
  100259:	8b 55 14             	mov    0x14(%ebp),%edx
  10025c:	66 89 45 ec          	mov    %ax,-0x14(%ebp)
  100260:	89 d0                	mov    %edx,%eax
  100262:	88 45 e8             	mov    %al,-0x18(%ebp)
  100265:	8b 45 08             	mov    0x8(%ebp),%eax
  100268:	c1 e0 03             	shl    $0x3,%eax
  10026b:	05 60 90 13 00       	add    $0x139060,%eax
  100270:	89 45 fc             	mov    %eax,-0x4(%ebp)
  100273:	8b 45 0c             	mov    0xc(%ebp),%eax
  100276:	89 c2                	mov    %eax,%edx
  100278:	8b 45 fc             	mov    -0x4(%ebp),%eax
  10027b:	66 89 10             	mov    %dx,(%eax)
  10027e:	8b 45 fc             	mov    -0x4(%ebp),%eax
  100281:	0f b7 55 ec          	movzwl -0x14(%ebp),%edx
  100285:	66 89 50 02          	mov    %dx,0x2(%eax)
  100289:	8b 45 fc             	mov    -0x4(%ebp),%eax
  10028c:	c6 40 04 00          	movb   $0x0,0x4(%eax)
  100290:	0f b6 45 e8          	movzbl -0x18(%ebp),%eax
  100294:	83 c8 60             	or     $0x60,%eax
  100297:	89 c2                	mov    %eax,%edx
  100299:	8b 45 fc             	mov    -0x4(%ebp),%eax
  10029c:	88 50 05             	mov    %dl,0x5(%eax)
  10029f:	8b 45 0c             	mov    0xc(%ebp),%eax
  1002a2:	c1 e8 10             	shr    $0x10,%eax
  1002a5:	89 c2                	mov    %eax,%edx
  1002a7:	8b 45 fc             	mov    -0x4(%ebp),%eax
  1002aa:	66 89 50 06          	mov    %dx,0x6(%eax)
  1002ae:	90                   	nop
  1002af:	c9                   	leave  
  1002b0:	c3                   	ret    

001002b1 <idt_init>:
  1002b1:	55                   	push   %ebp
  1002b2:	89 e5                	mov    %esp,%ebp
  1002b4:	83 ec 08             	sub    $0x8,%esp
  1002b7:	b8 60 90 13 00       	mov    $0x139060,%eax
  1002bc:	a3 62 98 13 00       	mov    %eax,0x139862
  1002c1:	66 c7 05 60 98 13 00 	movw   $0x7ff,0x139860
  1002c8:	ff 07 
  1002ca:	e8 bc 13 00 00       	call   10168b <pic8259_init>
  1002cf:	b8 65 1b 12 00       	mov    $0x121b65,%eax
  1002d4:	68 8e 00 00 00       	push   $0x8e
  1002d9:	6a 08                	push   $0x8
  1002db:	50                   	push   %eax
  1002dc:	6a 00                	push   $0x0
  1002de:	e8 6d ff ff ff       	call   100250 <idt_set_entry>
  1002e3:	83 c4 10             	add    $0x10,%esp
  1002e6:	b8 6c 1b 12 00       	mov    $0x121b6c,%eax
  1002eb:	68 8e 00 00 00       	push   $0x8e
  1002f0:	6a 08                	push   $0x8
  1002f2:	50                   	push   %eax
  1002f3:	6a 01                	push   $0x1
  1002f5:	e8 56 ff ff ff       	call   100250 <idt_set_entry>
  1002fa:	83 c4 10             	add    $0x10,%esp
  1002fd:	b8 73 1b 12 00       	mov    $0x121b73,%eax
  100302:	68 8e 00 00 00       	push   $0x8e
  100307:	6a 08                	push   $0x8
  100309:	50                   	push   %eax
  10030a:	6a 02                	push   $0x2
  10030c:	e8 3f ff ff ff       	call   100250 <idt_set_entry>
  100311:	83 c4 10             	add    $0x10,%esp
  100314:	b8 7a 1b 12 00       	mov    $0x121b7a,%eax
  100319:	68 8e 00 00 00       	push   $0x8e
  10031e:	6a 08                	push   $0x8
  100320:	50                   	push   %eax
  100321:	6a 03                	push   $0x3
  100323:	e8 28 ff ff ff       	call   100250 <idt_set_entry>
  100328:	83 c4 10             	add    $0x10,%esp
  10032b:	b8 81 1b 12 00       	mov    $0x121b81,%eax
  100330:	68 8e 00 00 00       	push   $0x8e
  100335:	6a 08                	push   $0x8
  100337:	50                   	push   %eax
  100338:	6a 04                	push   $0x4
  10033a:	e8 11 ff ff ff       	call   100250 <idt_set_entry>
  10033f:	83 c4 10             	add    $0x10,%esp
  100342:	b8 88 1b 12 00       	mov    $0x121b88,%eax
  100347:	68 8e 00 00 00       	push   $0x8e
  10034c:	6a 08                	push   $0x8
  10034e:	50                   	push   %eax
  10034f:	6a 05                	push   $0x5
  100351:	e8 fa fe ff ff       	call   100250 <idt_set_entry>
  100356:	83 c4 10             	add    $0x10,%esp
  100359:	b8 8f 1b 12 00       	mov    $0x121b8f,%eax
  10035e:	68 8e 00 00 00       	push   $0x8e
  100363:	6a 08                	push   $0x8
  100365:	50                   	push   %eax
  100366:	6a 06                	push   $0x6
  100368:	e8 e3 fe ff ff       	call   100250 <idt_set_entry>
  10036d:	83 c4 10             	add    $0x10,%esp
  100370:	b8 96 1b 12 00       	mov    $0x121b96,%eax
  100375:	68 8e 00 00 00       	push   $0x8e
  10037a:	6a 08                	push   $0x8
  10037c:	50                   	push   %eax
  10037d:	6a 07                	push   $0x7
  10037f:	e8 cc fe ff ff       	call   100250 <idt_set_entry>
  100384:	83 c4 10             	add    $0x10,%esp
  100387:	b8 9d 1b 12 00       	mov    $0x121b9d,%eax
  10038c:	68 8e 00 00 00       	push   $0x8e
  100391:	6a 08                	push   $0x8
  100393:	50                   	push   %eax
  100394:	6a 08                	push   $0x8
  100396:	e8 b5 fe ff ff       	call   100250 <idt_set_entry>
  10039b:	83 c4 10             	add    $0x10,%esp
  10039e:	b8 a2 1b 12 00       	mov    $0x121ba2,%eax
  1003a3:	68 8e 00 00 00       	push   $0x8e
  1003a8:	6a 08                	push   $0x8
  1003aa:	50                   	push   %eax
  1003ab:	6a 09                	push   $0x9
  1003ad:	e8 9e fe ff ff       	call   100250 <idt_set_entry>
  1003b2:	83 c4 10             	add    $0x10,%esp
  1003b5:	b8 a9 1b 12 00       	mov    $0x121ba9,%eax
  1003ba:	68 8e 00 00 00       	push   $0x8e
  1003bf:	6a 08                	push   $0x8
  1003c1:	50                   	push   %eax
  1003c2:	6a 0a                	push   $0xa
  1003c4:	e8 87 fe ff ff       	call   100250 <idt_set_entry>
  1003c9:	83 c4 10             	add    $0x10,%esp
  1003cc:	b8 ae 1b 12 00       	mov    $0x121bae,%eax
  1003d1:	68 8e 00 00 00       	push   $0x8e
  1003d6:	6a 08                	push   $0x8
  1003d8:	50                   	push   %eax
  1003d9:	6a 0b                	push   $0xb
  1003db:	e8 70 fe ff ff       	call   100250 <idt_set_entry>
  1003e0:	83 c4 10             	add    $0x10,%esp
  1003e3:	b8 b3 1b 12 00       	mov    $0x121bb3,%eax
  1003e8:	68 8e 00 00 00       	push   $0x8e
  1003ed:	6a 08                	push   $0x8
  1003ef:	50                   	push   %eax
  1003f0:	6a 0c                	push   $0xc
  1003f2:	e8 59 fe ff ff       	call   100250 <idt_set_entry>
  1003f7:	83 c4 10             	add    $0x10,%esp
  1003fa:	b8 b8 1b 12 00       	mov    $0x121bb8,%eax
  1003ff:	68 8e 00 00 00       	push   $0x8e
  100404:	6a 08                	push   $0x8
  100406:	50                   	push   %eax
  100407:	6a 0d                	push   $0xd
  100409:	e8 42 fe ff ff       	call   100250 <idt_set_entry>
  10040e:	83 c4 10             	add    $0x10,%esp
  100411:	b8 bd 1b 12 00       	mov    $0x121bbd,%eax
  100416:	68 8e 00 00 00       	push   $0x8e
  10041b:	6a 08                	push   $0x8
  10041d:	50                   	push   %eax
  10041e:	6a 0e                	push   $0xe
  100420:	e8 2b fe ff ff       	call   100250 <idt_set_entry>
  100425:	83 c4 10             	add    $0x10,%esp
  100428:	b8 c5 1b 12 00       	mov    $0x121bc5,%eax
  10042d:	68 8e 00 00 00       	push   $0x8e
  100432:	6a 08                	push   $0x8
  100434:	50                   	push   %eax
  100435:	6a 0f                	push   $0xf
  100437:	e8 14 fe ff ff       	call   100250 <idt_set_entry>
  10043c:	83 c4 10             	add    $0x10,%esp
  10043f:	b8 cf 1b 12 00       	mov    $0x121bcf,%eax
  100444:	68 8e 00 00 00       	push   $0x8e
  100449:	6a 08                	push   $0x8
  10044b:	50                   	push   %eax
  10044c:	6a 10                	push   $0x10
  10044e:	e8 fd fd ff ff       	call   100250 <idt_set_entry>
  100453:	83 c4 10             	add    $0x10,%esp
  100456:	b8 d9 1b 12 00       	mov    $0x121bd9,%eax
  10045b:	68 8e 00 00 00       	push   $0x8e
  100460:	6a 08                	push   $0x8
  100462:	50                   	push   %eax
  100463:	6a 11                	push   $0x11
  100465:	e8 e6 fd ff ff       	call   100250 <idt_set_entry>
  10046a:	83 c4 10             	add    $0x10,%esp
  10046d:	b8 e3 1b 12 00       	mov    $0x121be3,%eax
  100472:	68 8e 00 00 00       	push   $0x8e
  100477:	6a 08                	push   $0x8
  100479:	50                   	push   %eax
  10047a:	6a 12                	push   $0x12
  10047c:	e8 cf fd ff ff       	call   100250 <idt_set_entry>
  100481:	83 c4 10             	add    $0x10,%esp
  100484:	b8 ed 1b 12 00       	mov    $0x121bed,%eax
  100489:	68 8e 00 00 00       	push   $0x8e
  10048e:	6a 08                	push   $0x8
  100490:	50                   	push   %eax
  100491:	6a 13                	push   $0x13
  100493:	e8 b8 fd ff ff       	call   100250 <idt_set_entry>
  100498:	83 c4 10             	add    $0x10,%esp
  10049b:	b8 f7 1b 12 00       	mov    $0x121bf7,%eax
  1004a0:	68 8e 00 00 00       	push   $0x8e
  1004a5:	6a 08                	push   $0x8
  1004a7:	50                   	push   %eax
  1004a8:	6a 14                	push   $0x14
  1004aa:	e8 a1 fd ff ff       	call   100250 <idt_set_entry>
  1004af:	83 c4 10             	add    $0x10,%esp
  1004b2:	b8 01 1c 12 00       	mov    $0x121c01,%eax
  1004b7:	68 8e 00 00 00       	push   $0x8e
  1004bc:	6a 08                	push   $0x8
  1004be:	50                   	push   %eax
  1004bf:	6a 15                	push   $0x15
  1004c1:	e8 8a fd ff ff       	call   100250 <idt_set_entry>
  1004c6:	83 c4 10             	add    $0x10,%esp
  1004c9:	b8 0b 1c 12 00       	mov    $0x121c0b,%eax
  1004ce:	68 8e 00 00 00       	push   $0x8e
  1004d3:	6a 08                	push   $0x8
  1004d5:	50                   	push   %eax
  1004d6:	6a 16                	push   $0x16
  1004d8:	e8 73 fd ff ff       	call   100250 <idt_set_entry>
  1004dd:	83 c4 10             	add    $0x10,%esp
  1004e0:	b8 15 1c 12 00       	mov    $0x121c15,%eax
  1004e5:	68 8e 00 00 00       	push   $0x8e
  1004ea:	6a 08                	push   $0x8
  1004ec:	50                   	push   %eax
  1004ed:	6a 17                	push   $0x17
  1004ef:	e8 5c fd ff ff       	call   100250 <idt_set_entry>
  1004f4:	83 c4 10             	add    $0x10,%esp
  1004f7:	b8 1f 1c 12 00       	mov    $0x121c1f,%eax
  1004fc:	68 8e 00 00 00       	push   $0x8e
  100501:	6a 08                	push   $0x8
  100503:	50                   	push   %eax
  100504:	6a 18                	push   $0x18
  100506:	e8 45 fd ff ff       	call   100250 <idt_set_entry>
  10050b:	83 c4 10             	add    $0x10,%esp
  10050e:	b8 29 1c 12 00       	mov    $0x121c29,%eax
  100513:	68 8e 00 00 00       	push   $0x8e
  100518:	6a 08                	push   $0x8
  10051a:	50                   	push   %eax
  10051b:	6a 19                	push   $0x19
  10051d:	e8 2e fd ff ff       	call   100250 <idt_set_entry>
  100522:	83 c4 10             	add    $0x10,%esp
  100525:	b8 33 1c 12 00       	mov    $0x121c33,%eax
  10052a:	68 8e 00 00 00       	push   $0x8e
  10052f:	6a 08                	push   $0x8
  100531:	50                   	push   %eax
  100532:	6a 1a                	push   $0x1a
  100534:	e8 17 fd ff ff       	call   100250 <idt_set_entry>
  100539:	83 c4 10             	add    $0x10,%esp
  10053c:	b8 3d 1c 12 00       	mov    $0x121c3d,%eax
  100541:	68 8e 00 00 00       	push   $0x8e
  100546:	6a 08                	push   $0x8
  100548:	50                   	push   %eax
  100549:	6a 1b                	push   $0x1b
  10054b:	e8 00 fd ff ff       	call   100250 <idt_set_entry>
  100550:	83 c4 10             	add    $0x10,%esp
  100553:	b8 47 1c 12 00       	mov    $0x121c47,%eax
  100558:	68 8e 00 00 00       	push   $0x8e
  10055d:	6a 08                	push   $0x8
  10055f:	50                   	push   %eax
  100560:	6a 1c                	push   $0x1c
  100562:	e8 e9 fc ff ff       	call   100250 <idt_set_entry>
  100567:	83 c4 10             	add    $0x10,%esp
  10056a:	b8 51 1c 12 00       	mov    $0x121c51,%eax
  10056f:	68 8e 00 00 00       	push   $0x8e
  100574:	6a 08                	push   $0x8
  100576:	50                   	push   %eax
  100577:	6a 1d                	push   $0x1d
  100579:	e8 d2 fc ff ff       	call   100250 <idt_set_entry>
  10057e:	83 c4 10             	add    $0x10,%esp
  100581:	b8 5b 1c 12 00       	mov    $0x121c5b,%eax
  100586:	68 8e 00 00 00       	push   $0x8e
  10058b:	6a 08                	push   $0x8
  10058d:	50                   	push   %eax
  10058e:	6a 1e                	push   $0x1e
  100590:	e8 bb fc ff ff       	call   100250 <idt_set_entry>
  100595:	83 c4 10             	add    $0x10,%esp
  100598:	b8 65 1c 12 00       	mov    $0x121c65,%eax
  10059d:	68 8e 00 00 00       	push   $0x8e
  1005a2:	6a 08                	push   $0x8
  1005a4:	50                   	push   %eax
  1005a5:	6a 1f                	push   $0x1f
  1005a7:	e8 a4 fc ff ff       	call   100250 <idt_set_entry>
  1005ac:	83 c4 10             	add    $0x10,%esp
  1005af:	b8 57 1a 12 00       	mov    $0x121a57,%eax
  1005b4:	68 8e 00 00 00       	push   $0x8e
  1005b9:	6a 08                	push   $0x8
  1005bb:	50                   	push   %eax
  1005bc:	6a 20                	push   $0x20
  1005be:	e8 8d fc ff ff       	call   100250 <idt_set_entry>
  1005c3:	83 c4 10             	add    $0x10,%esp
  1005c6:	b8 5e 1a 12 00       	mov    $0x121a5e,%eax
  1005cb:	68 8e 00 00 00       	push   $0x8e
  1005d0:	6a 08                	push   $0x8
  1005d2:	50                   	push   %eax
  1005d3:	6a 21                	push   $0x21
  1005d5:	e8 76 fc ff ff       	call   100250 <idt_set_entry>
  1005da:	83 c4 10             	add    $0x10,%esp
  1005dd:	b8 65 1a 12 00       	mov    $0x121a65,%eax
  1005e2:	68 8e 00 00 00       	push   $0x8e
  1005e7:	6a 08                	push   $0x8
  1005e9:	50                   	push   %eax
  1005ea:	6a 22                	push   $0x22
  1005ec:	e8 5f fc ff ff       	call   100250 <idt_set_entry>
  1005f1:	83 c4 10             	add    $0x10,%esp
  1005f4:	b8 6c 1a 12 00       	mov    $0x121a6c,%eax
  1005f9:	68 8e 00 00 00       	push   $0x8e
  1005fe:	6a 08                	push   $0x8
  100600:	50                   	push   %eax
  100601:	6a 23                	push   $0x23
  100603:	e8 48 fc ff ff       	call   100250 <idt_set_entry>
  100608:	83 c4 10             	add    $0x10,%esp
  10060b:	b8 73 1a 12 00       	mov    $0x121a73,%eax
  100610:	68 8e 00 00 00       	push   $0x8e
  100615:	6a 08                	push   $0x8
  100617:	50                   	push   %eax
  100618:	6a 24                	push   $0x24
  10061a:	e8 31 fc ff ff       	call   100250 <idt_set_entry>
  10061f:	83 c4 10             	add    $0x10,%esp
  100622:	b8 7a 1a 12 00       	mov    $0x121a7a,%eax
  100627:	68 8e 00 00 00       	push   $0x8e
  10062c:	6a 08                	push   $0x8
  10062e:	50                   	push   %eax
  10062f:	6a 25                	push   $0x25
  100631:	e8 1a fc ff ff       	call   100250 <idt_set_entry>
  100636:	83 c4 10             	add    $0x10,%esp
  100639:	b8 81 1a 12 00       	mov    $0x121a81,%eax
  10063e:	68 8e 00 00 00       	push   $0x8e
  100643:	6a 08                	push   $0x8
  100645:	50                   	push   %eax
  100646:	6a 26                	push   $0x26
  100648:	e8 03 fc ff ff       	call   100250 <idt_set_entry>
  10064d:	83 c4 10             	add    $0x10,%esp
  100650:	b8 88 1a 12 00       	mov    $0x121a88,%eax
  100655:	68 8e 00 00 00       	push   $0x8e
  10065a:	6a 08                	push   $0x8
  10065c:	50                   	push   %eax
  10065d:	6a 27                	push   $0x27
  10065f:	e8 ec fb ff ff       	call   100250 <idt_set_entry>
  100664:	83 c4 10             	add    $0x10,%esp
  100667:	b8 8f 1a 12 00       	mov    $0x121a8f,%eax
  10066c:	68 8e 00 00 00       	push   $0x8e
  100671:	6a 08                	push   $0x8
  100673:	50                   	push   %eax
  100674:	6a 28                	push   $0x28
  100676:	e8 d5 fb ff ff       	call   100250 <idt_set_entry>
  10067b:	83 c4 10             	add    $0x10,%esp
  10067e:	b8 96 1a 12 00       	mov    $0x121a96,%eax
  100683:	68 8e 00 00 00       	push   $0x8e
  100688:	6a 08                	push   $0x8
  10068a:	50                   	push   %eax
  10068b:	6a 29                	push   $0x29
  10068d:	e8 be fb ff ff       	call   100250 <idt_set_entry>
  100692:	83 c4 10             	add    $0x10,%esp
  100695:	b8 e0 1d 12 00       	mov    $0x121de0,%eax
  10069a:	68 8e 00 00 00       	push   $0x8e
  10069f:	6a 08                	push   $0x8
  1006a1:	50                   	push   %eax
  1006a2:	6a 2a                	push   $0x2a
  1006a4:	e8 a7 fb ff ff       	call   100250 <idt_set_entry>
  1006a9:	83 c4 10             	add    $0x10,%esp
  1006ac:	b8 a4 1a 12 00       	mov    $0x121aa4,%eax
  1006b1:	68 8e 00 00 00       	push   $0x8e
  1006b6:	6a 08                	push   $0x8
  1006b8:	50                   	push   %eax
  1006b9:	6a 2b                	push   $0x2b
  1006bb:	e8 90 fb ff ff       	call   100250 <idt_set_entry>
  1006c0:	83 c4 10             	add    $0x10,%esp
  1006c3:	b8 ab 1a 12 00       	mov    $0x121aab,%eax
  1006c8:	68 8e 00 00 00       	push   $0x8e
  1006cd:	6a 08                	push   $0x8
  1006cf:	50                   	push   %eax
  1006d0:	6a 2c                	push   $0x2c
  1006d2:	e8 79 fb ff ff       	call   100250 <idt_set_entry>
  1006d7:	83 c4 10             	add    $0x10,%esp
  1006da:	b8 b5 1a 12 00       	mov    $0x121ab5,%eax
  1006df:	68 8e 00 00 00       	push   $0x8e
  1006e4:	6a 08                	push   $0x8
  1006e6:	50                   	push   %eax
  1006e7:	6a 2d                	push   $0x2d
  1006e9:	e8 62 fb ff ff       	call   100250 <idt_set_entry>
  1006ee:	83 c4 10             	add    $0x10,%esp
  1006f1:	b8 bf 1a 12 00       	mov    $0x121abf,%eax
  1006f6:	68 8e 00 00 00       	push   $0x8e
  1006fb:	6a 08                	push   $0x8
  1006fd:	50                   	push   %eax
  1006fe:	6a 2e                	push   $0x2e
  100700:	e8 4b fb ff ff       	call   100250 <idt_set_entry>
  100705:	83 c4 10             	add    $0x10,%esp
  100708:	b8 c9 1a 12 00       	mov    $0x121ac9,%eax
  10070d:	68 8e 00 00 00       	push   $0x8e
  100712:	6a 08                	push   $0x8
  100714:	50                   	push   %eax
  100715:	6a 2f                	push   $0x2f
  100717:	e8 34 fb ff ff       	call   100250 <idt_set_entry>
  10071c:	83 c4 10             	add    $0x10,%esp
  10071f:	b8 6f 1c 12 00       	mov    $0x121c6f,%eax
  100724:	68 8e 00 00 00       	push   $0x8e
  100729:	6a 08                	push   $0x8
  10072b:	50                   	push   %eax
  10072c:	68 80 00 00 00       	push   $0x80
  100731:	e8 1a fb ff ff       	call   100250 <idt_set_entry>
  100736:	83 c4 10             	add    $0x10,%esp
  100739:	b8 60 98 13 00       	mov    $0x139860,%eax
  10073e:	83 ec 0c             	sub    $0xc,%esp
  100741:	50                   	push   %eax
  100742:	e8 99 13 02 00       	call   121ae0 <load_idt>
  100747:	83 c4 10             	add    $0x10,%esp
  10074a:	fb                   	sti    
  10074b:	90                   	nop
  10074c:	c9                   	leave  
  10074d:	c3                   	ret    

0010074e <populate_cpu_info>:
  10074e:	55                   	push   %ebp
  10074f:	89 e5                	mov    %esp,%ebp
  100751:	53                   	push   %ebx
  100752:	83 ec 24             	sub    $0x24,%esp
  100755:	83 ec 0c             	sub    $0xc,%esp
  100758:	8d 45 e4             	lea    -0x1c(%ebp),%eax
  10075b:	50                   	push   %eax
  10075c:	8d 45 e8             	lea    -0x18(%ebp),%eax
  10075f:	50                   	push   %eax
  100760:	8d 45 ec             	lea    -0x14(%ebp),%eax
  100763:	50                   	push   %eax
  100764:	8d 45 f0             	lea    -0x10(%ebp),%eax
  100767:	50                   	push   %eax
  100768:	6a 00                	push   $0x0
  10076a:	e8 e7 05 00 00       	call   100d56 <cpuid>
  10076f:	83 c4 20             	add    $0x20,%esp
  100772:	8b 45 08             	mov    0x8(%ebp),%eax
  100775:	8d 50 10             	lea    0x10(%eax),%edx
  100778:	8b 45 ec             	mov    -0x14(%ebp),%eax
  10077b:	89 02                	mov    %eax,(%edx)
  10077d:	8b 45 08             	mov    0x8(%ebp),%eax
  100780:	83 c0 10             	add    $0x10,%eax
  100783:	8d 50 04             	lea    0x4(%eax),%edx
  100786:	8b 45 e4             	mov    -0x1c(%ebp),%eax
  100789:	89 02                	mov    %eax,(%edx)
  10078b:	8b 45 08             	mov    0x8(%ebp),%eax
  10078e:	83 c0 10             	add    $0x10,%eax
  100791:	8d 50 08             	lea    0x8(%eax),%edx
  100794:	8b 45 e8             	mov    -0x18(%ebp),%eax
  100797:	89 02                	mov    %eax,(%edx)
  100799:	8b 45 08             	mov    0x8(%ebp),%eax
  10079c:	c6 40 1c 00          	movb   $0x0,0x1c(%eax)
  1007a0:	8b 45 08             	mov    0x8(%ebp),%eax
  1007a3:	83 c0 42             	add    $0x42,%eax
  1007a6:	89 45 f4             	mov    %eax,-0xc(%ebp)
  1007a9:	83 ec 0c             	sub    $0xc,%esp
  1007ac:	8d 45 e4             	lea    -0x1c(%ebp),%eax
  1007af:	50                   	push   %eax
  1007b0:	8d 45 e8             	lea    -0x18(%ebp),%eax
  1007b3:	50                   	push   %eax
  1007b4:	8d 45 ec             	lea    -0x14(%ebp),%eax
  1007b7:	50                   	push   %eax
  1007b8:	8d 45 f0             	lea    -0x10(%ebp),%eax
  1007bb:	50                   	push   %eax
  1007bc:	68 02 00 00 80       	push   $0x80000002
  1007c1:	e8 90 05 00 00       	call   100d56 <cpuid>
  1007c6:	83 c4 20             	add    $0x20,%esp
  1007c9:	8b 55 f0             	mov    -0x10(%ebp),%edx
  1007cc:	8b 45 f4             	mov    -0xc(%ebp),%eax
  1007cf:	89 10                	mov    %edx,(%eax)
  1007d1:	8b 45 f4             	mov    -0xc(%ebp),%eax
  1007d4:	8d 50 04             	lea    0x4(%eax),%edx
  1007d7:	8b 45 ec             	mov    -0x14(%ebp),%eax
  1007da:	89 02                	mov    %eax,(%edx)
  1007dc:	8b 45 f4             	mov    -0xc(%ebp),%eax
  1007df:	8d 50 08             	lea    0x8(%eax),%edx
  1007e2:	8b 45 e8             	mov    -0x18(%ebp),%eax
  1007e5:	89 02                	mov    %eax,(%edx)
  1007e7:	8b 45 f4             	mov    -0xc(%ebp),%eax
  1007ea:	8d 50 0c             	lea    0xc(%eax),%edx
  1007ed:	8b 45 e4             	mov    -0x1c(%ebp),%eax
  1007f0:	89 02                	mov    %eax,(%edx)
  1007f2:	83 ec 0c             	sub    $0xc,%esp
  1007f5:	8d 45 e4             	lea    -0x1c(%ebp),%eax
  1007f8:	50                   	push   %eax
  1007f9:	8d 45 e8             	lea    -0x18(%ebp),%eax
  1007fc:	50                   	push   %eax
  1007fd:	8d 45 ec             	lea    -0x14(%ebp),%eax
  100800:	50                   	push   %eax
  100801:	8d 45 f0             	lea    -0x10(%ebp),%eax
  100804:	50                   	push   %eax
  100805:	68 03 00 00 80       	push   $0x80000003
  10080a:	e8 47 05 00 00       	call   100d56 <cpuid>
  10080f:	83 c4 20             	add    $0x20,%esp
  100812:	8b 45 f4             	mov    -0xc(%ebp),%eax
  100815:	8d 50 10             	lea    0x10(%eax),%edx
  100818:	8b 45 f0             	mov    -0x10(%ebp),%eax
  10081b:	89 02                	mov    %eax,(%edx)
  10081d:	8b 45 f4             	mov    -0xc(%ebp),%eax
  100820:	8d 50 14             	lea    0x14(%eax),%edx
  100823:	8b 45 ec             	mov    -0x14(%ebp),%eax
  100826:	89 02                	mov    %eax,(%edx)
  100828:	8b 45 f4             	mov    -0xc(%ebp),%eax
  10082b:	8d 50 18             	lea    0x18(%eax),%edx
  10082e:	8b 45 e8             	mov    -0x18(%ebp),%eax
  100831:	89 02                	mov    %eax,(%edx)
  100833:	8b 45 f4             	mov    -0xc(%ebp),%eax
  100836:	8d 50 1c             	lea    0x1c(%eax),%edx
  100839:	8b 45 e4             	mov    -0x1c(%ebp),%eax
  10083c:	89 02                	mov    %eax,(%edx)
  10083e:	83 ec 0c             	sub    $0xc,%esp
  100841:	8d 45 e4             	lea    -0x1c(%ebp),%eax
  100844:	50                   	push   %eax
  100845:	8d 45 e8             	lea    -0x18(%ebp),%eax
  100848:	50                   	push   %eax
  100849:	8d 45 ec             	lea    -0x14(%ebp),%eax
  10084c:	50                   	push   %eax
  10084d:	8d 45 f0             	lea    -0x10(%ebp),%eax
  100850:	50                   	push   %eax
  100851:	68 04 00 00 80       	push   $0x80000004
  100856:	e8 fb 04 00 00       	call   100d56 <cpuid>
  10085b:	83 c4 20             	add    $0x20,%esp
  10085e:	8b 45 f4             	mov    -0xc(%ebp),%eax
  100861:	8d 50 20             	lea    0x20(%eax),%edx
  100864:	8b 45 f0             	mov    -0x10(%ebp),%eax
  100867:	89 02                	mov    %eax,(%edx)
  100869:	8b 45 f4             	mov    -0xc(%ebp),%eax
  10086c:	8d 50 24             	lea    0x24(%eax),%edx
  10086f:	8b 45 ec             	mov    -0x14(%ebp),%eax
  100872:	89 02                	mov    %eax,(%edx)
  100874:	8b 45 f4             	mov    -0xc(%ebp),%eax
  100877:	8d 50 28             	lea    0x28(%eax),%edx
  10087a:	8b 45 e8             	mov    -0x18(%ebp),%eax
  10087d:	89 02                	mov    %eax,(%edx)
  10087f:	8b 45 f4             	mov    -0xc(%ebp),%eax
  100882:	8d 50 2c             	lea    0x2c(%eax),%edx
  100885:	8b 45 e4             	mov    -0x1c(%ebp),%eax
  100888:	89 02                	mov    %eax,(%edx)
  10088a:	8b 45 08             	mov    0x8(%ebp),%eax
  10088d:	c6 40 72 00          	movb   $0x0,0x72(%eax)
  100891:	83 ec 0c             	sub    $0xc,%esp
  100894:	8d 45 e4             	lea    -0x1c(%ebp),%eax
  100897:	50                   	push   %eax
  100898:	8d 45 e8             	lea    -0x18(%ebp),%eax
  10089b:	50                   	push   %eax
  10089c:	8d 45 ec             	lea    -0x14(%ebp),%eax
  10089f:	50                   	push   %eax
  1008a0:	8d 45 f0             	lea    -0x10(%ebp),%eax
  1008a3:	50                   	push   %eax
  1008a4:	6a 01                	push   $0x1
  1008a6:	e8 ab 04 00 00       	call   100d56 <cpuid>
  1008ab:	83 c4 20             	add    $0x20,%esp
  1008ae:	8b 45 ec             	mov    -0x14(%ebp),%eax
  1008b1:	c1 e8 10             	shr    $0x10,%eax
  1008b4:	0f b6 d0             	movzbl %al,%edx
  1008b7:	8b 45 08             	mov    0x8(%ebp),%eax
  1008ba:	89 50 04             	mov    %edx,0x4(%eax)
  1008bd:	8b 45 e4             	mov    -0x1c(%ebp),%eax
  1008c0:	25 00 00 00 10       	and    $0x10000000,%eax
  1008c5:	85 c0                	test   %eax,%eax
  1008c7:	0f 95 c2             	setne  %dl
  1008ca:	8b 45 08             	mov    0x8(%ebp),%eax
  1008cd:	88 90 a6 00 00 00    	mov    %dl,0xa6(%eax)
  1008d3:	8b 5d e4             	mov    -0x1c(%ebp),%ebx
  1008d6:	8b 4d e8             	mov    -0x18(%ebp),%ecx
  1008d9:	8b 55 ec             	mov    -0x14(%ebp),%edx
  1008dc:	8b 45 f0             	mov    -0x10(%ebp),%eax
  1008df:	83 ec 08             	sub    $0x8,%esp
  1008e2:	53                   	push   %ebx
  1008e3:	51                   	push   %ecx
  1008e4:	52                   	push   %edx
  1008e5:	50                   	push   %eax
  1008e6:	68 80 1f 12 00       	push   $0x121f80
  1008eb:	68 c0 1e 12 00       	push   $0x121ec0
  1008f0:	e8 3e 03 00 00       	call   100c33 <printf_com>
  1008f5:	83 c4 20             	add    $0x20,%esp
  1008f8:	8b 45 08             	mov    0x8(%ebp),%eax
  1008fb:	0f b6 80 a6 00 00 00 	movzbl 0xa6(%eax),%eax
  100902:	0f b6 d0             	movzbl %al,%edx
  100905:	8b 45 08             	mov    0x8(%ebp),%eax
  100908:	8b 40 04             	mov    0x4(%eax),%eax
  10090b:	52                   	push   %edx
  10090c:	50                   	push   %eax
  10090d:	68 80 1f 12 00       	push   $0x121f80
  100912:	68 f0 1e 12 00       	push   $0x121ef0
  100917:	e8 17 03 00 00       	call   100c33 <printf_com>
  10091c:	83 c4 10             	add    $0x10,%esp
  10091f:	83 ec 0c             	sub    $0xc,%esp
  100922:	8d 45 e4             	lea    -0x1c(%ebp),%eax
  100925:	50                   	push   %eax
  100926:	8d 45 e8             	lea    -0x18(%ebp),%eax
  100929:	50                   	push   %eax
  10092a:	8d 45 ec             	lea    -0x14(%ebp),%eax
  10092d:	50                   	push   %eax
  10092e:	8d 45 f0             	lea    -0x10(%ebp),%eax
  100931:	50                   	push   %eax
  100932:	6a 02                	push   $0x2
  100934:	e8 1d 04 00 00       	call   100d56 <cpuid>
  100939:	83 c4 20             	add    $0x20,%esp
  10093c:	8b 45 f0             	mov    -0x10(%ebp),%eax
  10093f:	c1 e8 10             	shr    $0x10,%eax
  100942:	c1 e0 0a             	shl    $0xa,%eax
  100945:	89 c2                	mov    %eax,%edx
  100947:	8b 45 08             	mov    0x8(%ebp),%eax
  10094a:	89 50 0c             	mov    %edx,0xc(%eax)
  10094d:	83 ec 0c             	sub    $0xc,%esp
  100950:	8d 45 e4             	lea    -0x1c(%ebp),%eax
  100953:	50                   	push   %eax
  100954:	8d 45 e8             	lea    -0x18(%ebp),%eax
  100957:	50                   	push   %eax
  100958:	8d 45 ec             	lea    -0x14(%ebp),%eax
  10095b:	50                   	push   %eax
  10095c:	8d 45 f0             	lea    -0x10(%ebp),%eax
  10095f:	50                   	push   %eax
  100960:	6a 16                	push   $0x16
  100962:	e8 ef 03 00 00       	call   100d56 <cpuid>
  100967:	83 c4 20             	add    $0x20,%esp
  10096a:	8b 45 f0             	mov    -0x10(%ebp),%eax
  10096d:	0f b7 d0             	movzwl %ax,%edx
  100970:	8b 45 08             	mov    0x8(%ebp),%eax
  100973:	89 50 08             	mov    %edx,0x8(%eax)
  100976:	8b 45 ec             	mov    -0x14(%ebp),%eax
  100979:	0f b7 d0             	movzwl %ax,%edx
  10097c:	8b 45 08             	mov    0x8(%ebp),%eax
  10097f:	89 90 b0 00 00 00    	mov    %edx,0xb0(%eax)
  100985:	8b 5d e4             	mov    -0x1c(%ebp),%ebx
  100988:	8b 4d e8             	mov    -0x18(%ebp),%ecx
  10098b:	8b 55 ec             	mov    -0x14(%ebp),%edx
  10098e:	8b 45 f0             	mov    -0x10(%ebp),%eax
  100991:	83 ec 08             	sub    $0x8,%esp
  100994:	53                   	push   %ebx
  100995:	51                   	push   %ecx
  100996:	52                   	push   %edx
  100997:	50                   	push   %eax
  100998:	68 80 1f 12 00       	push   $0x121f80
  10099d:	68 18 1f 12 00       	push   $0x121f18
  1009a2:	e8 8c 02 00 00       	call   100c33 <printf_com>
  1009a7:	83 c4 20             	add    $0x20,%esp
  1009aa:	8b 45 08             	mov    0x8(%ebp),%eax
  1009ad:	8b 90 b0 00 00 00    	mov    0xb0(%eax),%edx
  1009b3:	8b 45 08             	mov    0x8(%ebp),%eax
  1009b6:	8b 40 08             	mov    0x8(%eax),%eax
  1009b9:	52                   	push   %edx
  1009ba:	50                   	push   %eax
  1009bb:	68 80 1f 12 00       	push   $0x121f80
  1009c0:	68 4c 1f 12 00       	push   $0x121f4c
  1009c5:	e8 69 02 00 00       	call   100c33 <printf_com>
  1009ca:	83 c4 10             	add    $0x10,%esp
  1009cd:	8b 45 08             	mov    0x8(%ebp),%eax
  1009d0:	c7 00 01 00 00 00    	movl   $0x1,(%eax)
  1009d6:	8b 45 08             	mov    0x8(%ebp),%eax
  1009d9:	c7 80 ac 00 00 00 00 	movl   $0x0,0xac(%eax)
  1009e0:	00 00 00 
  1009e3:	8b 45 08             	mov    0x8(%ebp),%eax
  1009e6:	c7 80 b4 00 00 00 00 	movl   $0x0,0xb4(%eax)
  1009ed:	00 00 00 
  1009f0:	8b 45 08             	mov    0x8(%ebp),%eax
  1009f3:	c7 80 b8 00 00 00 00 	movl   $0x0,0xb8(%eax)
  1009fa:	00 00 00 
  1009fd:	8b 45 08             	mov    0x8(%ebp),%eax
  100a00:	d9 ee                	fldz   
  100a02:	d9 98 bc 00 00 00    	fstps  0xbc(%eax)
  100a08:	90                   	nop
  100a09:	8b 5d fc             	mov    -0x4(%ebp),%ebx
  100a0c:	c9                   	leave  
  100a0d:	c3                   	ret    

00100a0e <populate_system_info>:
  100a0e:	55                   	push   %ebp
  100a0f:	89 e5                	mov    %esp,%ebp
  100a11:	57                   	push   %edi
  100a12:	56                   	push   %esi
  100a13:	53                   	push   %ebx
  100a14:	81 ec 0c 01 00 00    	sub    $0x10c,%esp
  100a1a:	8b 45 08             	mov    0x8(%ebp),%eax
  100a1d:	05 00 01 00 00       	add    $0x100,%eax
  100a22:	83 ec 0c             	sub    $0xc,%esp
  100a25:	50                   	push   %eax
  100a26:	e8 23 fd ff ff       	call   10074e <populate_cpu_info>
  100a2b:	83 c4 10             	add    $0x10,%esp
  100a2e:	8b 45 08             	mov    0x8(%ebp),%eax
  100a31:	05 c0 01 00 00       	add    $0x1c0,%eax
  100a36:	bb 40 6f 16 00       	mov    $0x166f40,%ebx
  100a3b:	ba 13 00 00 00       	mov    $0x13,%edx
  100a40:	89 c7                	mov    %eax,%edi
  100a42:	89 de                	mov    %ebx,%esi
  100a44:	89 d1                	mov    %edx,%ecx
  100a46:	f3 a5                	rep movsl %ds:(%esi),%es:(%edi)
  100a48:	c7 85 e8 fe ff ff 41 	movl   $0x65687441,-0x118(%ebp)
  100a4f:	74 68 65 
  100a52:	c7 85 ec fe ff ff 6e 	movl   $0x642d586e,-0x114(%ebp)
  100a59:	58 2d 64 
  100a5c:	c7 85 f0 fe ff ff 65 	movl   $0x702d7665,-0x110(%ebp)
  100a63:	76 2d 70 
  100a66:	c7 85 f4 fe ff ff 63 	movl   $0x63,-0x10c(%ebp)
  100a6d:	00 00 00 
  100a70:	8d 95 f8 fe ff ff    	lea    -0x108(%ebp),%edx
  100a76:	b8 00 00 00 00       	mov    $0x0,%eax
  100a7b:	b9 3c 00 00 00       	mov    $0x3c,%ecx
  100a80:	89 d7                	mov    %edx,%edi
  100a82:	f3 ab                	rep stos %eax,%es:(%edi)
  100a84:	8b 45 08             	mov    0x8(%ebp),%eax
  100a87:	83 ec 08             	sub    $0x8,%esp
  100a8a:	8d 95 e8 fe ff ff    	lea    -0x118(%ebp),%edx
  100a90:	52                   	push   %edx
  100a91:	50                   	push   %eax
  100a92:	e8 4d 05 02 00       	call   120fe4 <strcpy>
  100a97:	83 c4 10             	add    $0x10,%esp
  100a9a:	90                   	nop
  100a9b:	8d 65 f4             	lea    -0xc(%ebp),%esp
  100a9e:	5b                   	pop    %ebx
  100a9f:	5e                   	pop    %esi
  100aa0:	5f                   	pop    %edi
  100aa1:	5d                   	pop    %ebp
  100aa2:	c3                   	ret    

00100aa3 <init_system_info>:
  100aa3:	55                   	push   %ebp
  100aa4:	89 e5                	mov    %esp,%ebp
  100aa6:	83 ec 08             	sub    $0x8,%esp
  100aa9:	83 ec 0c             	sub    $0xc,%esp
  100aac:	68 80 98 13 00       	push   $0x139880
  100ab1:	e8 58 ff ff ff       	call   100a0e <populate_system_info>
  100ab6:	83 c4 10             	add    $0x10,%esp
  100ab9:	90                   	nop
  100aba:	c9                   	leave  
  100abb:	c3                   	ret    

00100abc <inportb>:
  100abc:	55                   	push   %ebp
  100abd:	89 e5                	mov    %esp,%ebp
  100abf:	83 ec 14             	sub    $0x14,%esp
  100ac2:	8b 45 08             	mov    0x8(%ebp),%eax
  100ac5:	66 89 45 ec          	mov    %ax,-0x14(%ebp)
  100ac9:	0f b7 45 ec          	movzwl -0x14(%ebp),%eax
  100acd:	89 c2                	mov    %eax,%edx
  100acf:	ec                   	in     (%dx),%al
  100ad0:	88 45 ff             	mov    %al,-0x1(%ebp)
  100ad3:	0f b6 45 ff          	movzbl -0x1(%ebp),%eax
  100ad7:	c9                   	leave  
  100ad8:	c3                   	ret    

00100ad9 <outportb>:
  100ad9:	55                   	push   %ebp
  100ada:	89 e5                	mov    %esp,%ebp
  100adc:	83 ec 08             	sub    $0x8,%esp
  100adf:	8b 45 08             	mov    0x8(%ebp),%eax
  100ae2:	8b 55 0c             	mov    0xc(%ebp),%edx
  100ae5:	66 89 45 fc          	mov    %ax,-0x4(%ebp)
  100ae9:	89 d0                	mov    %edx,%eax
  100aeb:	88 45 f8             	mov    %al,-0x8(%ebp)
  100aee:	0f b7 55 fc          	movzwl -0x4(%ebp),%edx
  100af2:	0f b6 45 f8          	movzbl -0x8(%ebp),%eax
  100af6:	ee                   	out    %al,(%dx)
  100af7:	90                   	nop
  100af8:	c9                   	leave  
  100af9:	c3                   	ret    

00100afa <inports>:
  100afa:	55                   	push   %ebp
  100afb:	89 e5                	mov    %esp,%ebp
  100afd:	83 ec 14             	sub    $0x14,%esp
  100b00:	8b 45 08             	mov    0x8(%ebp),%eax
  100b03:	66 89 45 ec          	mov    %ax,-0x14(%ebp)
  100b07:	0f b7 45 ec          	movzwl -0x14(%ebp),%eax
  100b0b:	89 c2                	mov    %eax,%edx
  100b0d:	66 ed                	in     (%dx),%ax
  100b0f:	66 89 45 fe          	mov    %ax,-0x2(%ebp)
  100b13:	0f b7 45 fe          	movzwl -0x2(%ebp),%eax
  100b17:	c9                   	leave  
  100b18:	c3                   	ret    

00100b19 <outports>:
  100b19:	55                   	push   %ebp
  100b1a:	89 e5                	mov    %esp,%ebp
  100b1c:	83 ec 08             	sub    $0x8,%esp
  100b1f:	8b 55 08             	mov    0x8(%ebp),%edx
  100b22:	8b 45 0c             	mov    0xc(%ebp),%eax
  100b25:	66 89 55 fc          	mov    %dx,-0x4(%ebp)
  100b29:	66 89 45 f8          	mov    %ax,-0x8(%ebp)
  100b2d:	0f b7 55 fc          	movzwl -0x4(%ebp),%edx
  100b31:	0f b7 45 f8          	movzwl -0x8(%ebp),%eax
  100b35:	66 ef                	out    %ax,(%dx)
  100b37:	90                   	nop
  100b38:	c9                   	leave  
  100b39:	c3                   	ret    

00100b3a <inportl>:
  100b3a:	55                   	push   %ebp
  100b3b:	89 e5                	mov    %esp,%ebp
  100b3d:	83 ec 14             	sub    $0x14,%esp
  100b40:	8b 45 08             	mov    0x8(%ebp),%eax
  100b43:	66 89 45 ec          	mov    %ax,-0x14(%ebp)
  100b47:	0f b7 45 ec          	movzwl -0x14(%ebp),%eax
  100b4b:	89 c2                	mov    %eax,%edx
  100b4d:	ed                   	in     (%dx),%eax
  100b4e:	89 45 fc             	mov    %eax,-0x4(%ebp)
  100b51:	8b 45 fc             	mov    -0x4(%ebp),%eax
  100b54:	c9                   	leave  
  100b55:	c3                   	ret    

00100b56 <outportl>:
  100b56:	55                   	push   %ebp
  100b57:	89 e5                	mov    %esp,%ebp
  100b59:	83 ec 04             	sub    $0x4,%esp
  100b5c:	8b 45 08             	mov    0x8(%ebp),%eax
  100b5f:	66 89 45 fc          	mov    %ax,-0x4(%ebp)
  100b63:	0f b7 55 fc          	movzwl -0x4(%ebp),%edx
  100b67:	8b 45 0c             	mov    0xc(%ebp),%eax
  100b6a:	ef                   	out    %eax,(%dx)
  100b6b:	90                   	nop
  100b6c:	c9                   	leave  
  100b6d:	c3                   	ret    

00100b6e <write_to_com1>:
  100b6e:	55                   	push   %ebp
  100b6f:	89 e5                	mov    %esp,%ebp
  100b71:	83 ec 04             	sub    $0x4,%esp
  100b74:	8b 45 08             	mov    0x8(%ebp),%eax
  100b77:	88 45 fc             	mov    %al,-0x4(%ebp)
  100b7a:	0f b6 45 fc          	movzbl -0x4(%ebp),%eax
  100b7e:	50                   	push   %eax
  100b7f:	68 f8 03 00 00       	push   $0x3f8
  100b84:	e8 50 ff ff ff       	call   100ad9 <outportb>
  100b89:	83 c4 08             	add    $0x8,%esp
  100b8c:	90                   	nop
  100b8d:	c9                   	leave  
  100b8e:	c3                   	ret    

00100b8f <write_to_com1_string>:
  100b8f:	55                   	push   %ebp
  100b90:	89 e5                	mov    %esp,%ebp
  100b92:	83 ec 18             	sub    $0x18,%esp
  100b95:	a1 00 a0 12 00       	mov    0x12a000,%eax
  100b9a:	83 f8 01             	cmp    $0x1,%eax
  100b9d:	75 37                	jne    100bd6 <write_to_com1_string+0x47>
  100b9f:	c7 45 f4 00 00 00 00 	movl   $0x0,-0xc(%ebp)
  100ba6:	eb 1b                	jmp    100bc3 <write_to_com1_string+0x34>
  100ba8:	8b 55 08             	mov    0x8(%ebp),%edx
  100bab:	8b 45 f4             	mov    -0xc(%ebp),%eax
  100bae:	01 d0                	add    %edx,%eax
  100bb0:	0f b6 00             	movzbl (%eax),%eax
  100bb3:	0f b6 c0             	movzbl %al,%eax
  100bb6:	50                   	push   %eax
  100bb7:	e8 b2 ff ff ff       	call   100b6e <write_to_com1>
  100bbc:	83 c4 04             	add    $0x4,%esp
  100bbf:	83 45 f4 01          	addl   $0x1,-0xc(%ebp)
  100bc3:	83 ec 0c             	sub    $0xc,%esp
  100bc6:	ff 75 08             	push   0x8(%ebp)
  100bc9:	e8 32 03 02 00       	call   120f00 <strlen>
  100bce:	83 c4 10             	add    $0x10,%esp
  100bd1:	39 45 f4             	cmp    %eax,-0xc(%ebp)
  100bd4:	72 d2                	jb     100ba8 <write_to_com1_string+0x19>
  100bd6:	90                   	nop
  100bd7:	c9                   	leave  
  100bd8:	c3                   	ret    

00100bd9 <printf_error>:
  100bd9:	55                   	push   %ebp
  100bda:	89 e5                	mov    %esp,%ebp
  100bdc:	81 ec 18 01 00 00    	sub    $0x118,%esp
  100be2:	8d 45 0c             	lea    0xc(%ebp),%eax
  100be5:	89 85 f0 fe ff ff    	mov    %eax,-0x110(%ebp)
  100beb:	8b 85 f0 fe ff ff    	mov    -0x110(%ebp),%eax
  100bf1:	50                   	push   %eax
  100bf2:	ff 75 08             	push   0x8(%ebp)
  100bf5:	68 00 01 00 00       	push   $0x100
  100bfa:	8d 85 f4 fe ff ff    	lea    -0x10c(%ebp),%eax
  100c00:	50                   	push   %eax
  100c01:	e8 a6 ef 01 00       	call   11fbac <vsnprintf_>
  100c06:	83 c4 10             	add    $0x10,%esp
  100c09:	c7 45 f4 92 1f 12 00 	movl   $0x121f92,-0xc(%ebp)
  100c10:	83 ec 0c             	sub    $0xc,%esp
  100c13:	ff 75 f4             	push   -0xc(%ebp)
  100c16:	e8 74 ff ff ff       	call   100b8f <write_to_com1_string>
  100c1b:	83 c4 10             	add    $0x10,%esp
  100c1e:	83 ec 0c             	sub    $0xc,%esp
  100c21:	8d 85 f4 fe ff ff    	lea    -0x10c(%ebp),%eax
  100c27:	50                   	push   %eax
  100c28:	e8 62 ff ff ff       	call   100b8f <write_to_com1_string>
  100c2d:	83 c4 10             	add    $0x10,%esp
  100c30:	90                   	nop
  100c31:	c9                   	leave  
  100c32:	c3                   	ret    

00100c33 <printf_com>:
  100c33:	55                   	push   %ebp
  100c34:	89 e5                	mov    %esp,%ebp
  100c36:	81 ec 08 04 00 00    	sub    $0x408,%esp
  100c3c:	8d 45 0c             	lea    0xc(%ebp),%eax
  100c3f:	89 85 00 fc ff ff    	mov    %eax,-0x400(%ebp)
  100c45:	8b 85 00 fc ff ff    	mov    -0x400(%ebp),%eax
  100c4b:	50                   	push   %eax
  100c4c:	ff 75 08             	push   0x8(%ebp)
  100c4f:	68 f1 03 00 00       	push   $0x3f1
  100c54:	8d 85 07 fc ff ff    	lea    -0x3f9(%ebp),%eax
  100c5a:	50                   	push   %eax
  100c5b:	e8 4c ef 01 00       	call   11fbac <vsnprintf_>
  100c60:	83 c4 10             	add    $0x10,%esp
  100c63:	83 ec 0c             	sub    $0xc,%esp
  100c66:	8d 85 07 fc ff ff    	lea    -0x3f9(%ebp),%eax
  100c6c:	50                   	push   %eax
  100c6d:	e8 1d ff ff ff       	call   100b8f <write_to_com1_string>
  100c72:	83 c4 10             	add    $0x10,%esp
  100c75:	90                   	nop
  100c76:	c9                   	leave  
  100c77:	c3                   	ret    

00100c78 <configure_com1>:
  100c78:	55                   	push   %ebp
  100c79:	89 e5                	mov    %esp,%ebp
  100c7b:	53                   	push   %ebx
  100c7c:	83 ec 20             	sub    $0x20,%esp
  100c7f:	8b 45 08             	mov    0x8(%ebp),%eax
  100c82:	8b 5d 0c             	mov    0xc(%ebp),%ebx
  100c85:	8b 4d 10             	mov    0x10(%ebp),%ecx
  100c88:	8b 55 14             	mov    0x14(%ebp),%edx
  100c8b:	66 89 45 e8          	mov    %ax,-0x18(%ebp)
  100c8f:	89 d8                	mov    %ebx,%eax
  100c91:	88 45 e4             	mov    %al,-0x1c(%ebp)
  100c94:	89 c8                	mov    %ecx,%eax
  100c96:	88 45 e0             	mov    %al,-0x20(%ebp)
  100c99:	89 d0                	mov    %edx,%eax
  100c9b:	88 45 dc             	mov    %al,-0x24(%ebp)
  100c9e:	6a 00                	push   $0x0
  100ca0:	68 f9 03 00 00       	push   $0x3f9
  100ca5:	e8 2f fe ff ff       	call   100ad9 <outportb>
  100caa:	83 c4 08             	add    $0x8,%esp
  100cad:	0f b7 4d e8          	movzwl -0x18(%ebp),%ecx
  100cb1:	b8 00 c2 01 00       	mov    $0x1c200,%eax
  100cb6:	99                   	cltd   
  100cb7:	f7 f9                	idiv   %ecx
  100cb9:	66 89 45 fa          	mov    %ax,-0x6(%ebp)
  100cbd:	68 80 00 00 00       	push   $0x80
  100cc2:	68 fb 03 00 00       	push   $0x3fb
  100cc7:	e8 0d fe ff ff       	call   100ad9 <outportb>
  100ccc:	83 c4 08             	add    $0x8,%esp
  100ccf:	0f b7 45 fa          	movzwl -0x6(%ebp),%eax
  100cd3:	0f b6 c0             	movzbl %al,%eax
  100cd6:	50                   	push   %eax
  100cd7:	68 f8 03 00 00       	push   $0x3f8
  100cdc:	e8 f8 fd ff ff       	call   100ad9 <outportb>
  100ce1:	83 c4 08             	add    $0x8,%esp
  100ce4:	0f b7 45 fa          	movzwl -0x6(%ebp),%eax
  100ce8:	66 c1 e8 08          	shr    $0x8,%ax
  100cec:	0f b6 c0             	movzbl %al,%eax
  100cef:	50                   	push   %eax
  100cf0:	68 f9 03 00 00       	push   $0x3f9
  100cf5:	e8 df fd ff ff       	call   100ad9 <outportb>
  100cfa:	83 c4 08             	add    $0x8,%esp
  100cfd:	6a 03                	push   $0x3
  100cff:	68 fb 03 00 00       	push   $0x3fb
  100d04:	e8 d0 fd ff ff       	call   100ad9 <outportb>
  100d09:	83 c4 08             	add    $0x8,%esp
  100d0c:	68 c7 00 00 00       	push   $0xc7
  100d11:	68 fa 03 00 00       	push   $0x3fa
  100d16:	e8 be fd ff ff       	call   100ad9 <outportb>
  100d1b:	83 c4 08             	add    $0x8,%esp
  100d1e:	6a 0b                	push   $0xb
  100d20:	68 fc 03 00 00       	push   $0x3fc
  100d25:	e8 af fd ff ff       	call   100ad9 <outportb>
  100d2a:	83 c4 08             	add    $0x8,%esp
  100d2d:	90                   	nop
  100d2e:	8b 5d fc             	mov    -0x4(%ebp),%ebx
  100d31:	c9                   	leave  
  100d32:	c3                   	ret    

00100d33 <init_com1>:
  100d33:	55                   	push   %ebp
  100d34:	89 e5                	mov    %esp,%ebp
  100d36:	6a 00                	push   $0x0
  100d38:	6a 01                	push   $0x1
  100d3a:	6a 08                	push   $0x8
  100d3c:	68 80 25 00 00       	push   $0x2580
  100d41:	e8 32 ff ff ff       	call   100c78 <configure_com1>
  100d46:	83 c4 10             	add    $0x10,%esp
  100d49:	c7 05 00 a0 12 00 01 	movl   $0x1,0x12a000
  100d50:	00 00 00 
  100d53:	90                   	nop
  100d54:	c9                   	leave  
  100d55:	c3                   	ret    

00100d56 <cpuid>:
  100d56:	55                   	push   %ebp
  100d57:	89 e5                	mov    %esp,%ebp
  100d59:	56                   	push   %esi
  100d5a:	53                   	push   %ebx
  100d5b:	8b 45 08             	mov    0x8(%ebp),%eax
  100d5e:	0f a2                	cpuid  
  100d60:	89 c6                	mov    %eax,%esi
  100d62:	8b 45 0c             	mov    0xc(%ebp),%eax
  100d65:	89 30                	mov    %esi,(%eax)
  100d67:	8b 45 10             	mov    0x10(%ebp),%eax
  100d6a:	89 18                	mov    %ebx,(%eax)
  100d6c:	8b 45 14             	mov    0x14(%ebp),%eax
  100d6f:	89 08                	mov    %ecx,(%eax)
  100d71:	8b 45 18             	mov    0x18(%ebp),%eax
  100d74:	89 10                	mov    %edx,(%eax)
  100d76:	90                   	nop
  100d77:	5b                   	pop    %ebx
  100d78:	5e                   	pop    %esi
  100d79:	5d                   	pop    %ebp
  100d7a:	c3                   	ret    

00100d7b <get_cpu_name>:
  100d7b:	55                   	push   %ebp
  100d7c:	89 e5                	mov    %esp,%ebp
  100d7e:	83 ec 10             	sub    $0x10,%esp
  100d81:	8d 45 f0             	lea    -0x10(%ebp),%eax
  100d84:	50                   	push   %eax
  100d85:	8d 45 f4             	lea    -0xc(%ebp),%eax
  100d88:	50                   	push   %eax
  100d89:	8d 45 f8             	lea    -0x8(%ebp),%eax
  100d8c:	50                   	push   %eax
  100d8d:	8d 45 fc             	lea    -0x4(%ebp),%eax
  100d90:	50                   	push   %eax
  100d91:	68 02 00 00 80       	push   $0x80000002
  100d96:	e8 bb ff ff ff       	call   100d56 <cpuid>
  100d9b:	83 c4 14             	add    $0x14,%esp
  100d9e:	8b 55 fc             	mov    -0x4(%ebp),%edx
  100da1:	8b 45 08             	mov    0x8(%ebp),%eax
  100da4:	89 10                	mov    %edx,(%eax)
  100da6:	8b 45 08             	mov    0x8(%ebp),%eax
  100da9:	8d 50 04             	lea    0x4(%eax),%edx
  100dac:	8b 45 f8             	mov    -0x8(%ebp),%eax
  100daf:	89 02                	mov    %eax,(%edx)
  100db1:	8b 45 08             	mov    0x8(%ebp),%eax
  100db4:	8d 50 08             	lea    0x8(%eax),%edx
  100db7:	8b 45 f4             	mov    -0xc(%ebp),%eax
  100dba:	89 02                	mov    %eax,(%edx)
  100dbc:	8b 45 08             	mov    0x8(%ebp),%eax
  100dbf:	8d 50 0c             	lea    0xc(%eax),%edx
  100dc2:	8b 45 f0             	mov    -0x10(%ebp),%eax
  100dc5:	89 02                	mov    %eax,(%edx)
  100dc7:	8d 45 f0             	lea    -0x10(%ebp),%eax
  100dca:	50                   	push   %eax
  100dcb:	8d 45 f4             	lea    -0xc(%ebp),%eax
  100dce:	50                   	push   %eax
  100dcf:	8d 45 f8             	lea    -0x8(%ebp),%eax
  100dd2:	50                   	push   %eax
  100dd3:	8d 45 fc             	lea    -0x4(%ebp),%eax
  100dd6:	50                   	push   %eax
  100dd7:	68 03 00 00 80       	push   $0x80000003
  100ddc:	e8 75 ff ff ff       	call   100d56 <cpuid>
  100de1:	83 c4 14             	add    $0x14,%esp
  100de4:	8b 45 08             	mov    0x8(%ebp),%eax
  100de7:	8d 50 10             	lea    0x10(%eax),%edx
  100dea:	8b 45 fc             	mov    -0x4(%ebp),%eax
  100ded:	89 02                	mov    %eax,(%edx)
  100def:	8b 45 08             	mov    0x8(%ebp),%eax
  100df2:	8d 50 14             	lea    0x14(%eax),%edx
  100df5:	8b 45 f8             	mov    -0x8(%ebp),%eax
  100df8:	89 02                	mov    %eax,(%edx)
  100dfa:	8b 45 08             	mov    0x8(%ebp),%eax
  100dfd:	8d 50 18             	lea    0x18(%eax),%edx
  100e00:	8b 45 f4             	mov    -0xc(%ebp),%eax
  100e03:	89 02                	mov    %eax,(%edx)
  100e05:	8b 45 08             	mov    0x8(%ebp),%eax
  100e08:	8d 50 1c             	lea    0x1c(%eax),%edx
  100e0b:	8b 45 f0             	mov    -0x10(%ebp),%eax
  100e0e:	89 02                	mov    %eax,(%edx)
  100e10:	8d 45 f0             	lea    -0x10(%ebp),%eax
  100e13:	50                   	push   %eax
  100e14:	8d 45 f4             	lea    -0xc(%ebp),%eax
  100e17:	50                   	push   %eax
  100e18:	8d 45 f8             	lea    -0x8(%ebp),%eax
  100e1b:	50                   	push   %eax
  100e1c:	8d 45 fc             	lea    -0x4(%ebp),%eax
  100e1f:	50                   	push   %eax
  100e20:	68 04 00 00 80       	push   $0x80000004
  100e25:	e8 2c ff ff ff       	call   100d56 <cpuid>
  100e2a:	83 c4 14             	add    $0x14,%esp
  100e2d:	8b 45 08             	mov    0x8(%ebp),%eax
  100e30:	8d 50 20             	lea    0x20(%eax),%edx
  100e33:	8b 45 fc             	mov    -0x4(%ebp),%eax
  100e36:	89 02                	mov    %eax,(%edx)
  100e38:	8b 45 08             	mov    0x8(%ebp),%eax
  100e3b:	8d 50 24             	lea    0x24(%eax),%edx
  100e3e:	8b 45 f8             	mov    -0x8(%ebp),%eax
  100e41:	89 02                	mov    %eax,(%edx)
  100e43:	8b 45 08             	mov    0x8(%ebp),%eax
  100e46:	8d 50 28             	lea    0x28(%eax),%edx
  100e49:	8b 45 f4             	mov    -0xc(%ebp),%eax
  100e4c:	89 02                	mov    %eax,(%edx)
  100e4e:	8b 45 08             	mov    0x8(%ebp),%eax
  100e51:	8d 50 2c             	lea    0x2c(%eax),%edx
  100e54:	8b 45 f0             	mov    -0x10(%ebp),%eax
  100e57:	89 02                	mov    %eax,(%edx)
  100e59:	8b 45 08             	mov    0x8(%ebp),%eax
  100e5c:	83 c0 10             	add    $0x10,%eax
  100e5f:	c6 00 00             	movb   $0x0,(%eax)
  100e62:	90                   	nop
  100e63:	c9                   	leave  
  100e64:	c3                   	ret    

00100e65 <get_cpu_info>:
  100e65:	55                   	push   %ebp
  100e66:	89 e5                	mov    %esp,%ebp
  100e68:	83 ec 38             	sub    $0x38,%esp
  100e6b:	8d 45 d8             	lea    -0x28(%ebp),%eax
  100e6e:	50                   	push   %eax
  100e6f:	8d 45 dc             	lea    -0x24(%ebp),%eax
  100e72:	50                   	push   %eax
  100e73:	8d 45 e0             	lea    -0x20(%ebp),%eax
  100e76:	50                   	push   %eax
  100e77:	8d 45 e4             	lea    -0x1c(%ebp),%eax
  100e7a:	50                   	push   %eax
  100e7b:	68 02 00 00 80       	push   $0x80000002
  100e80:	e8 d1 fe ff ff       	call   100d56 <cpuid>
  100e85:	83 c4 14             	add    $0x14,%esp
  100e88:	8b 55 e4             	mov    -0x1c(%ebp),%edx
  100e8b:	8b 45 08             	mov    0x8(%ebp),%eax
  100e8e:	89 10                	mov    %edx,(%eax)
  100e90:	8b 45 08             	mov    0x8(%ebp),%eax
  100e93:	8d 50 04             	lea    0x4(%eax),%edx
  100e96:	8b 45 e0             	mov    -0x20(%ebp),%eax
  100e99:	89 02                	mov    %eax,(%edx)
  100e9b:	8b 45 08             	mov    0x8(%ebp),%eax
  100e9e:	8d 50 08             	lea    0x8(%eax),%edx
  100ea1:	8b 45 dc             	mov    -0x24(%ebp),%eax
  100ea4:	89 02                	mov    %eax,(%edx)
  100ea6:	8b 45 08             	mov    0x8(%ebp),%eax
  100ea9:	8d 50 0c             	lea    0xc(%eax),%edx
  100eac:	8b 45 d8             	mov    -0x28(%ebp),%eax
  100eaf:	89 02                	mov    %eax,(%edx)
  100eb1:	8d 45 d8             	lea    -0x28(%ebp),%eax
  100eb4:	50                   	push   %eax
  100eb5:	8d 45 dc             	lea    -0x24(%ebp),%eax
  100eb8:	50                   	push   %eax
  100eb9:	8d 45 e0             	lea    -0x20(%ebp),%eax
  100ebc:	50                   	push   %eax
  100ebd:	8d 45 e4             	lea    -0x1c(%ebp),%eax
  100ec0:	50                   	push   %eax
  100ec1:	68 03 00 00 80       	push   $0x80000003
  100ec6:	e8 8b fe ff ff       	call   100d56 <cpuid>
  100ecb:	83 c4 14             	add    $0x14,%esp
  100ece:	8b 45 08             	mov    0x8(%ebp),%eax
  100ed1:	8d 50 10             	lea    0x10(%eax),%edx
  100ed4:	8b 45 e4             	mov    -0x1c(%ebp),%eax
  100ed7:	89 02                	mov    %eax,(%edx)
  100ed9:	8b 45 08             	mov    0x8(%ebp),%eax
  100edc:	8d 50 14             	lea    0x14(%eax),%edx
  100edf:	8b 45 e0             	mov    -0x20(%ebp),%eax
  100ee2:	89 02                	mov    %eax,(%edx)
  100ee4:	8b 45 08             	mov    0x8(%ebp),%eax
  100ee7:	8d 50 18             	lea    0x18(%eax),%edx
  100eea:	8b 45 dc             	mov    -0x24(%ebp),%eax
  100eed:	89 02                	mov    %eax,(%edx)
  100eef:	8b 45 08             	mov    0x8(%ebp),%eax
  100ef2:	8d 50 1c             	lea    0x1c(%eax),%edx
  100ef5:	8b 45 d8             	mov    -0x28(%ebp),%eax
  100ef8:	89 02                	mov    %eax,(%edx)
  100efa:	8d 45 d8             	lea    -0x28(%ebp),%eax
  100efd:	50                   	push   %eax
  100efe:	8d 45 dc             	lea    -0x24(%ebp),%eax
  100f01:	50                   	push   %eax
  100f02:	8d 45 e0             	lea    -0x20(%ebp),%eax
  100f05:	50                   	push   %eax
  100f06:	8d 45 e4             	lea    -0x1c(%ebp),%eax
  100f09:	50                   	push   %eax
  100f0a:	68 04 00 00 80       	push   $0x80000004
  100f0f:	e8 42 fe ff ff       	call   100d56 <cpuid>
  100f14:	83 c4 14             	add    $0x14,%esp
  100f17:	8b 45 08             	mov    0x8(%ebp),%eax
  100f1a:	8d 50 20             	lea    0x20(%eax),%edx
  100f1d:	8b 45 e4             	mov    -0x1c(%ebp),%eax
  100f20:	89 02                	mov    %eax,(%edx)
  100f22:	8b 45 08             	mov    0x8(%ebp),%eax
  100f25:	8d 50 24             	lea    0x24(%eax),%edx
  100f28:	8b 45 e0             	mov    -0x20(%ebp),%eax
  100f2b:	89 02                	mov    %eax,(%edx)
  100f2d:	8b 45 08             	mov    0x8(%ebp),%eax
  100f30:	8d 50 28             	lea    0x28(%eax),%edx
  100f33:	8b 45 dc             	mov    -0x24(%ebp),%eax
  100f36:	89 02                	mov    %eax,(%edx)
  100f38:	8b 45 08             	mov    0x8(%ebp),%eax
  100f3b:	8d 50 2c             	lea    0x2c(%eax),%edx
  100f3e:	8b 45 d8             	mov    -0x28(%ebp),%eax
  100f41:	89 02                	mov    %eax,(%edx)
  100f43:	8b 45 08             	mov    0x8(%ebp),%eax
  100f46:	83 c0 30             	add    $0x30,%eax
  100f49:	c6 00 00             	movb   $0x0,(%eax)
  100f4c:	8d 45 d8             	lea    -0x28(%ebp),%eax
  100f4f:	50                   	push   %eax
  100f50:	8d 45 dc             	lea    -0x24(%ebp),%eax
  100f53:	50                   	push   %eax
  100f54:	8d 45 e0             	lea    -0x20(%ebp),%eax
  100f57:	50                   	push   %eax
  100f58:	8d 45 e4             	lea    -0x1c(%ebp),%eax
  100f5b:	50                   	push   %eax
  100f5c:	6a 00                	push   $0x0
  100f5e:	e8 f3 fd ff ff       	call   100d56 <cpuid>
  100f63:	83 c4 14             	add    $0x14,%esp
  100f66:	83 ec 04             	sub    $0x4,%esp
  100f69:	6a 04                	push   $0x4
  100f6b:	8d 45 e0             	lea    -0x20(%ebp),%eax
  100f6e:	50                   	push   %eax
  100f6f:	8d 45 cb             	lea    -0x35(%ebp),%eax
  100f72:	50                   	push   %eax
  100f73:	e8 f2 fd 01 00       	call   120d6a <memcpy>
  100f78:	83 c4 10             	add    $0x10,%esp
  100f7b:	8d 45 cb             	lea    -0x35(%ebp),%eax
  100f7e:	83 c0 04             	add    $0x4,%eax
  100f81:	83 ec 04             	sub    $0x4,%esp
  100f84:	6a 04                	push   $0x4
  100f86:	8d 55 d8             	lea    -0x28(%ebp),%edx
  100f89:	52                   	push   %edx
  100f8a:	50                   	push   %eax
  100f8b:	e8 da fd 01 00       	call   120d6a <memcpy>
  100f90:	83 c4 10             	add    $0x10,%esp
  100f93:	8d 45 cb             	lea    -0x35(%ebp),%eax
  100f96:	83 c0 08             	add    $0x8,%eax
  100f99:	83 ec 04             	sub    $0x4,%esp
  100f9c:	6a 04                	push   $0x4
  100f9e:	8d 55 dc             	lea    -0x24(%ebp),%edx
  100fa1:	52                   	push   %edx
  100fa2:	50                   	push   %eax
  100fa3:	e8 c2 fd 01 00       	call   120d6a <memcpy>
  100fa8:	83 c4 10             	add    $0x10,%esp
  100fab:	c6 45 d7 00          	movb   $0x0,-0x29(%ebp)
  100faf:	83 ec 08             	sub    $0x8,%esp
  100fb2:	68 9a 1f 12 00       	push   $0x121f9a
  100fb7:	8d 45 cb             	lea    -0x35(%ebp),%eax
  100fba:	50                   	push   %eax
  100fbb:	e8 68 ff 01 00       	call   120f28 <strcmp>
  100fc0:	83 c4 10             	add    $0x10,%esp
  100fc3:	85 c0                	test   %eax,%eax
  100fc5:	75 15                	jne    100fdc <get_cpu_info+0x177>
  100fc7:	83 ec 08             	sub    $0x8,%esp
  100fca:	68 a7 1f 12 00       	push   $0x121fa7
  100fcf:	ff 75 0c             	push   0xc(%ebp)
  100fd2:	e8 0d 00 02 00       	call   120fe4 <strcpy>
  100fd7:	83 c4 10             	add    $0x10,%esp
  100fda:	eb 40                	jmp    10101c <get_cpu_info+0x1b7>
  100fdc:	83 ec 08             	sub    $0x8,%esp
  100fdf:	68 ab 1f 12 00       	push   $0x121fab
  100fe4:	8d 45 cb             	lea    -0x35(%ebp),%eax
  100fe7:	50                   	push   %eax
  100fe8:	e8 3b ff 01 00       	call   120f28 <strcmp>
  100fed:	83 c4 10             	add    $0x10,%esp
  100ff0:	85 c0                	test   %eax,%eax
  100ff2:	75 15                	jne    101009 <get_cpu_info+0x1a4>
  100ff4:	83 ec 08             	sub    $0x8,%esp
  100ff7:	68 a7 1f 12 00       	push   $0x121fa7
  100ffc:	ff 75 0c             	push   0xc(%ebp)
  100fff:	e8 e0 ff 01 00       	call   120fe4 <strcpy>
  101004:	83 c4 10             	add    $0x10,%esp
  101007:	eb 13                	jmp    10101c <get_cpu_info+0x1b7>
  101009:	83 ec 08             	sub    $0x8,%esp
  10100c:	68 b8 1f 12 00       	push   $0x121fb8
  101011:	ff 75 0c             	push   0xc(%ebp)
  101014:	e8 cb ff 01 00       	call   120fe4 <strcpy>
  101019:	83 c4 10             	add    $0x10,%esp
  10101c:	83 ec 0c             	sub    $0xc,%esp
  10101f:	8d 45 d8             	lea    -0x28(%ebp),%eax
  101022:	50                   	push   %eax
  101023:	8d 45 dc             	lea    -0x24(%ebp),%eax
  101026:	50                   	push   %eax
  101027:	8d 45 e0             	lea    -0x20(%ebp),%eax
  10102a:	50                   	push   %eax
  10102b:	8d 45 e4             	lea    -0x1c(%ebp),%eax
  10102e:	50                   	push   %eax
  10102f:	6a 01                	push   $0x1
  101031:	e8 20 fd ff ff       	call   100d56 <cpuid>
  101036:	83 c4 20             	add    $0x20,%esp
  101039:	8b 45 e4             	mov    -0x1c(%ebp),%eax
  10103c:	c1 e8 08             	shr    $0x8,%eax
  10103f:	83 e0 0f             	and    $0xf,%eax
  101042:	89 45 f4             	mov    %eax,-0xc(%ebp)
  101045:	8b 45 e4             	mov    -0x1c(%ebp),%eax
  101048:	c1 e8 04             	shr    $0x4,%eax
  10104b:	83 e0 0f             	and    $0xf,%eax
  10104e:	89 45 f0             	mov    %eax,-0x10(%ebp)
  101051:	8b 45 e4             	mov    -0x1c(%ebp),%eax
  101054:	c1 e8 14             	shr    $0x14,%eax
  101057:	25 ff 00 00 00       	and    $0xff,%eax
  10105c:	89 45 ec             	mov    %eax,-0x14(%ebp)
  10105f:	8b 45 e4             	mov    -0x1c(%ebp),%eax
  101062:	c1 e8 10             	shr    $0x10,%eax
  101065:	83 e0 0f             	and    $0xf,%eax
  101068:	89 45 e8             	mov    %eax,-0x18(%ebp)
  10106b:	83 7d f4 0f          	cmpl   $0xf,-0xc(%ebp)
  10106f:	75 0f                	jne    101080 <get_cpu_info+0x21b>
  101071:	8b 55 f4             	mov    -0xc(%ebp),%edx
  101074:	8b 45 ec             	mov    -0x14(%ebp),%eax
  101077:	01 c2                	add    %eax,%edx
  101079:	8b 45 10             	mov    0x10(%ebp),%eax
  10107c:	89 10                	mov    %edx,(%eax)
  10107e:	eb 08                	jmp    101088 <get_cpu_info+0x223>
  101080:	8b 45 10             	mov    0x10(%ebp),%eax
  101083:	8b 55 f4             	mov    -0xc(%ebp),%edx
  101086:	89 10                	mov    %edx,(%eax)
  101088:	83 7d f4 06          	cmpl   $0x6,-0xc(%ebp)
  10108c:	74 06                	je     101094 <get_cpu_info+0x22f>
  10108e:	83 7d f4 0f          	cmpl   $0xf,-0xc(%ebp)
  101092:	75 12                	jne    1010a6 <get_cpu_info+0x241>
  101094:	8b 45 e8             	mov    -0x18(%ebp),%eax
  101097:	c1 e0 04             	shl    $0x4,%eax
  10109a:	0b 45 f0             	or     -0x10(%ebp),%eax
  10109d:	89 c2                	mov    %eax,%edx
  10109f:	8b 45 14             	mov    0x14(%ebp),%eax
  1010a2:	89 10                	mov    %edx,(%eax)
  1010a4:	eb 08                	jmp    1010ae <get_cpu_info+0x249>
  1010a6:	8b 45 14             	mov    0x14(%ebp),%eax
  1010a9:	8b 55 f0             	mov    -0x10(%ebp),%edx
  1010ac:	89 10                	mov    %edx,(%eax)
  1010ae:	8b 45 e4             	mov    -0x1c(%ebp),%eax
  1010b1:	83 e0 0f             	and    $0xf,%eax
  1010b4:	89 c2                	mov    %eax,%edx
  1010b6:	8b 45 18             	mov    0x18(%ebp),%eax
  1010b9:	89 10                	mov    %edx,(%eax)
  1010bb:	90                   	nop
  1010bc:	c9                   	leave  
  1010bd:	c3                   	ret    

001010be <bios32_init>:
  1010be:	55                   	push   %ebp
  1010bf:	89 e5                	mov    %esp,%ebp
  1010c1:	83 ec 08             	sub    $0x8,%esp
  1010c4:	83 ec 0c             	sub    $0xc,%esp
  1010c7:	6a 0f                	push   $0xf
  1010c9:	68 9a 00 00 00       	push   $0x9a
  1010ce:	6a ff                	push   $0xffffffff
  1010d0:	6a 00                	push   $0x0
  1010d2:	6a 06                	push   $0x6
  1010d4:	e8 4d f0 ff ff       	call   100126 <gdt_set_entry>
  1010d9:	83 c4 20             	add    $0x20,%esp
  1010dc:	83 ec 0c             	sub    $0xc,%esp
  1010df:	6a 0f                	push   $0xf
  1010e1:	68 92 00 00 00       	push   $0x92
  1010e6:	6a ff                	push   $0xffffffff
  1010e8:	6a 00                	push   $0x0
  1010ea:	6a 07                	push   $0x7
  1010ec:	e8 35 f0 ff ff       	call   100126 <gdt_set_entry>
  1010f1:	83 c4 20             	add    $0x20,%esp
  1010f4:	b8 20 90 13 00       	mov    $0x139020,%eax
  1010f9:	a3 96 9a 13 00       	mov    %eax,0x139a96
  1010fe:	66 c7 05 94 9a 13 00 	movw   $0x3f,0x139a94
  101105:	3f 00 
  101107:	c7 05 8e 9a 13 00 00 	movl   $0x0,0x139a8e
  10110e:	00 00 00 
  101111:	66 c7 05 8c 9a 13 00 	movw   $0x3ff,0x139a8c
  101118:	ff 03 
  10111a:	90                   	nop
  10111b:	c9                   	leave  
  10111c:	c3                   	ret    

0010111d <bios32_service>:
  10111d:	55                   	push   %ebp
  10111e:	89 e5                	mov    %esp,%ebp
  101120:	83 ec 28             	sub    $0x28,%esp
  101123:	8b 45 08             	mov    0x8(%ebp),%eax
  101126:	88 45 e4             	mov    %al,-0x1c(%ebp)
  101129:	c7 45 f4 00 7c 00 00 	movl   $0x7c00,-0xc(%ebp)
  101130:	83 ec 04             	sub    $0x4,%esp
  101133:	6a 40                	push   $0x40
  101135:	68 20 90 13 00       	push   $0x139020
  10113a:	68 4b 1d 12 00       	push   $0x121d4b
  10113f:	e8 26 fc 01 00       	call   120d6a <memcpy>
  101144:	83 c4 10             	add    $0x10,%esp
  101147:	b8 80 1c 12 00       	mov    $0x121c80,%eax
  10114c:	ba 00 7c 00 00       	mov    $0x7c00,%edx
  101151:	29 c2                	sub    %eax,%edx
  101153:	89 d0                	mov    %edx,%eax
  101155:	05 4b 1d 12 00       	add    $0x121d4b,%eax
  10115a:	a3 96 9a 13 00       	mov    %eax,0x139a96
  10115f:	83 ec 04             	sub    $0x4,%esp
  101162:	6a 06                	push   $0x6
  101164:	68 94 9a 13 00       	push   $0x139a94
  101169:	68 8b 1d 12 00       	push   $0x121d8b
  10116e:	e8 f7 fb 01 00       	call   120d6a <memcpy>
  101173:	83 c4 10             	add    $0x10,%esp
  101176:	83 ec 04             	sub    $0x4,%esp
  101179:	6a 06                	push   $0x6
  10117b:	68 8c 9a 13 00       	push   $0x139a8c
  101180:	68 93 1d 12 00       	push   $0x121d93
  101185:	e8 e0 fb 01 00       	call   120d6a <memcpy>
  10118a:	83 c4 10             	add    $0x10,%esp
  10118d:	83 ec 04             	sub    $0x4,%esp
  101190:	6a 1c                	push   $0x1c
  101192:	ff 75 0c             	push   0xc(%ebp)
  101195:	68 9b 1d 12 00       	push   $0x121d9b
  10119a:	e8 cb fb 01 00       	call   120d6a <memcpy>
  10119f:	83 c4 10             	add    $0x10,%esp
  1011a2:	b8 80 1c 12 00       	mov    $0x121c80,%eax
  1011a7:	ba 00 7c 00 00       	mov    $0x7c00,%edx
  1011ac:	29 c2                	sub    %eax,%edx
  1011ae:	89 d0                	mov    %edx,%eax
  1011b0:	05 9b 1d 12 00       	add    $0x121d9b,%eax
  1011b5:	89 45 f0             	mov    %eax,-0x10(%ebp)
  1011b8:	83 ec 04             	sub    $0x4,%esp
  1011bb:	6a 01                	push   $0x1
  1011bd:	8d 45 e4             	lea    -0x1c(%ebp),%eax
  1011c0:	50                   	push   %eax
  1011c1:	68 f0 1c 12 00       	push   $0x121cf0
  1011c6:	e8 9f fb 01 00       	call   120d6a <memcpy>
  1011cb:	83 c4 10             	add    $0x10,%esp
  1011ce:	ba d5 1d 12 00       	mov    $0x121dd5,%edx
  1011d3:	b8 80 1c 12 00       	mov    $0x121c80,%eax
  1011d8:	29 c2                	sub    %eax,%edx
  1011da:	89 d0                	mov    %edx,%eax
  1011dc:	89 45 ec             	mov    %eax,-0x14(%ebp)
  1011df:	83 ec 04             	sub    $0x4,%esp
  1011e2:	ff 75 ec             	push   -0x14(%ebp)
  1011e5:	68 80 1c 12 00       	push   $0x121c80
  1011ea:	ff 75 f4             	push   -0xc(%ebp)
  1011ed:	e8 78 fb 01 00       	call   120d6a <memcpy>
  1011f2:	83 c4 10             	add    $0x10,%esp
  1011f5:	a1 10 80 12 00       	mov    0x128010,%eax
  1011fa:	ff d0                	call   *%eax
  1011fc:	b8 80 1c 12 00       	mov    $0x121c80,%eax
  101201:	ba 00 7c 00 00       	mov    $0x7c00,%edx
  101206:	29 c2                	sub    %eax,%edx
  101208:	89 d0                	mov    %edx,%eax
  10120a:	05 b7 1d 12 00       	add    $0x121db7,%eax
  10120f:	89 45 f0             	mov    %eax,-0x10(%ebp)
  101212:	83 ec 04             	sub    $0x4,%esp
  101215:	6a 1c                	push   $0x1c
  101217:	ff 75 f0             	push   -0x10(%ebp)
  10121a:	ff 75 10             	push   0x10(%ebp)
  10121d:	e8 48 fb 01 00       	call   120d6a <memcpy>
  101222:	83 c4 10             	add    $0x10,%esp
  101225:	e8 87 ef ff ff       	call   1001b1 <gdt_init>
  10122a:	e8 82 f0 ff ff       	call   1002b1 <idt_init>
  10122f:	90                   	nop
  101230:	c9                   	leave  
  101231:	c3                   	ret    

00101232 <int86>:
  101232:	55                   	push   %ebp
  101233:	89 e5                	mov    %esp,%ebp
  101235:	83 ec 18             	sub    $0x18,%esp
  101238:	8b 45 08             	mov    0x8(%ebp),%eax
  10123b:	88 45 f4             	mov    %al,-0xc(%ebp)
  10123e:	0f b6 45 f4          	movzbl -0xc(%ebp),%eax
  101242:	83 ec 04             	sub    $0x4,%esp
  101245:	ff 75 10             	push   0x10(%ebp)
  101248:	ff 75 0c             	push   0xc(%ebp)
  10124b:	50                   	push   %eax
  10124c:	e8 cc fe ff ff       	call   10111d <bios32_service>
  101251:	83 c4 10             	add    $0x10,%esp
  101254:	90                   	nop
  101255:	c9                   	leave  
  101256:	c3                   	ret    

00101257 <isr_register_interrupt_handler>:
  101257:	55                   	push   %ebp
  101258:	89 e5                	mov    %esp,%ebp
  10125a:	83 ec 08             	sub    $0x8,%esp
  10125d:	83 ec 04             	sub    $0x4,%esp
  101260:	ff 75 10             	push   0x10(%ebp)
  101263:	ff 75 08             	push   0x8(%ebp)
  101266:	68 7c 21 12 00       	push   $0x12217c
  10126b:	e8 3c e3 01 00       	call   11f5ac <printf>
  101270:	83 c4 10             	add    $0x10,%esp
  101273:	81 7d 08 ff 00 00 00 	cmpl   $0xff,0x8(%ebp)
  10127a:	7f 33                	jg     1012af <isr_register_interrupt_handler+0x58>
  10127c:	8b 45 08             	mov    0x8(%ebp),%eax
  10127f:	8b 04 85 a0 9a 13 00 	mov    0x139aa0(,%eax,4),%eax
  101286:	85 c0                	test   %eax,%eax
  101288:	75 0f                	jne    101299 <isr_register_interrupt_handler+0x42>
  10128a:	8b 45 08             	mov    0x8(%ebp),%eax
  10128d:	8b 55 0c             	mov    0xc(%ebp),%edx
  101290:	89 14 85 a0 9a 13 00 	mov    %edx,0x139aa0(,%eax,4)
  101297:	eb 16                	jmp    1012af <isr_register_interrupt_handler+0x58>
  101299:	83 ec 04             	sub    $0x4,%esp
  10129c:	ff 75 10             	push   0x10(%ebp)
  10129f:	ff 75 08             	push   0x8(%ebp)
  1012a2:	68 98 21 12 00       	push   $0x122198
  1012a7:	e8 00 e3 01 00       	call   11f5ac <printf>
  1012ac:	83 c4 10             	add    $0x10,%esp
  1012af:	90                   	nop
  1012b0:	c9                   	leave  
  1012b1:	c3                   	ret    

001012b2 <isr_end_interrupt>:
  1012b2:	55                   	push   %ebp
  1012b3:	89 e5                	mov    %esp,%ebp
  1012b5:	83 ec 08             	sub    $0x8,%esp
  1012b8:	8b 45 08             	mov    0x8(%ebp),%eax
  1012bb:	0f b6 c0             	movzbl %al,%eax
  1012be:	83 ec 0c             	sub    $0xc,%esp
  1012c1:	50                   	push   %eax
  1012c2:	e8 95 04 00 00       	call   10175c <pic8259_eoi>
  1012c7:	83 c4 10             	add    $0x10,%esp
  1012ca:	90                   	nop
  1012cb:	c9                   	leave  
  1012cc:	c3                   	ret    

001012cd <isr_irq_handler>:
  1012cd:	55                   	push   %ebp
  1012ce:	89 e5                	mov    %esp,%ebp
  1012d0:	83 ec 18             	sub    $0x18,%esp
  1012d3:	8b 45 08             	mov    0x8(%ebp),%eax
  1012d6:	8b 40 24             	mov    0x24(%eax),%eax
  1012d9:	8b 04 85 a0 9a 13 00 	mov    0x139aa0(,%eax,4),%eax
  1012e0:	85 c0                	test   %eax,%eax
  1012e2:	74 20                	je     101304 <isr_irq_handler+0x37>
  1012e4:	8b 45 08             	mov    0x8(%ebp),%eax
  1012e7:	8b 40 24             	mov    0x24(%eax),%eax
  1012ea:	8b 04 85 a0 9a 13 00 	mov    0x139aa0(,%eax,4),%eax
  1012f1:	89 45 f4             	mov    %eax,-0xc(%ebp)
  1012f4:	83 ec 0c             	sub    $0xc,%esp
  1012f7:	ff 75 08             	push   0x8(%ebp)
  1012fa:	8b 45 f4             	mov    -0xc(%ebp),%eax
  1012fd:	ff d0                	call   *%eax
  1012ff:	83 c4 10             	add    $0x10,%esp
  101302:	eb 1c                	jmp    101320 <isr_irq_handler+0x53>
  101304:	8b 45 08             	mov    0x8(%ebp),%eax
  101307:	8b 40 24             	mov    0x24(%eax),%eax
  10130a:	83 ec 04             	sub    $0x4,%esp
  10130d:	50                   	push   %eax
  10130e:	68 4c 23 12 00       	push   $0x12234c
  101313:	68 cc 21 12 00       	push   $0x1221cc
  101318:	e8 16 f9 ff ff       	call   100c33 <printf_com>
  10131d:	83 c4 10             	add    $0x10,%esp
  101320:	8b 45 08             	mov    0x8(%ebp),%eax
  101323:	8b 40 24             	mov    0x24(%eax),%eax
  101326:	0f b6 c0             	movzbl %al,%eax
  101329:	83 ec 0c             	sub    $0xc,%esp
  10132c:	50                   	push   %eax
  10132d:	e8 2a 04 00 00       	call   10175c <pic8259_eoi>
  101332:	83 c4 10             	add    $0x10,%esp
  101335:	90                   	nop
  101336:	c9                   	leave  
  101337:	c3                   	ret    

00101338 <print_registers>:
  101338:	55                   	push   %ebp
  101339:	89 e5                	mov    %esp,%ebp
  10133b:	53                   	push   %ebx
  10133c:	83 ec 04             	sub    $0x4,%esp
  10133f:	e8 be 1d 00 00       	call   103102 <cls>
  101344:	83 ec 0c             	sub    $0xc,%esp
  101347:	68 f2 21 12 00       	push   $0x1221f2
  10134c:	e8 5b e2 01 00       	call   11f5ac <printf>
  101351:	83 c4 10             	add    $0x10,%esp
  101354:	8b 45 08             	mov    0x8(%ebp),%eax
  101357:	8b 40 28             	mov    0x28(%eax),%eax
  10135a:	83 ec 08             	sub    $0x8,%esp
  10135d:	50                   	push   %eax
  10135e:	68 fe 21 12 00       	push   $0x1221fe
  101363:	e8 44 e2 01 00       	call   11f5ac <printf>
  101368:	83 c4 10             	add    $0x10,%esp
  10136b:	8b 45 08             	mov    0x8(%ebp),%eax
  10136e:	8b 58 18             	mov    0x18(%eax),%ebx
  101371:	8b 45 08             	mov    0x8(%ebp),%eax
  101374:	8b 48 1c             	mov    0x1c(%eax),%ecx
  101377:	8b 45 08             	mov    0x8(%ebp),%eax
  10137a:	8b 50 14             	mov    0x14(%eax),%edx
  10137d:	8b 45 08             	mov    0x8(%ebp),%eax
  101380:	8b 40 20             	mov    0x20(%eax),%eax
  101383:	83 ec 0c             	sub    $0xc,%esp
  101386:	53                   	push   %ebx
  101387:	51                   	push   %ecx
  101388:	52                   	push   %edx
  101389:	50                   	push   %eax
  10138a:	68 0c 22 12 00       	push   $0x12220c
  10138f:	e8 18 e2 01 00       	call   11f5ac <printf>
  101394:	83 c4 20             	add    $0x20,%esp
  101397:	8b 45 08             	mov    0x8(%ebp),%eax
  10139a:	8b 58 10             	mov    0x10(%eax),%ebx
  10139d:	8b 45 08             	mov    0x8(%ebp),%eax
  1013a0:	8b 48 0c             	mov    0xc(%eax),%ecx
  1013a3:	8b 45 08             	mov    0x8(%ebp),%eax
  1013a6:	8b 50 08             	mov    0x8(%eax),%edx
  1013a9:	8b 45 08             	mov    0x8(%ebp),%eax
  1013ac:	8b 40 04             	mov    0x4(%eax),%eax
  1013af:	83 ec 0c             	sub    $0xc,%esp
  1013b2:	53                   	push   %ebx
  1013b3:	51                   	push   %ecx
  1013b4:	52                   	push   %edx
  1013b5:	50                   	push   %eax
  1013b6:	68 34 22 12 00       	push   $0x122234
  1013bb:	e8 ec e1 01 00       	call   11f5ac <printf>
  1013c0:	83 c4 20             	add    $0x20,%esp
  1013c3:	8b 45 08             	mov    0x8(%ebp),%eax
  1013c6:	8b 58 38             	mov    0x38(%eax),%ebx
  1013c9:	8b 45 08             	mov    0x8(%ebp),%eax
  1013cc:	8b 48 34             	mov    0x34(%eax),%ecx
  1013cf:	8b 45 08             	mov    0x8(%ebp),%eax
  1013d2:	8b 50 3c             	mov    0x3c(%eax),%edx
  1013d5:	8b 45 08             	mov    0x8(%ebp),%eax
  1013d8:	8b 40 2c             	mov    0x2c(%eax),%eax
  1013db:	83 ec 0c             	sub    $0xc,%esp
  1013de:	53                   	push   %ebx
  1013df:	51                   	push   %ecx
  1013e0:	52                   	push   %edx
  1013e1:	50                   	push   %eax
  1013e2:	68 5c 22 12 00       	push   $0x12225c
  1013e7:	e8 c0 e1 01 00       	call   11f5ac <printf>
  1013ec:	83 c4 20             	add    $0x20,%esp
  1013ef:	90                   	nop
  1013f0:	8b 5d fc             	mov    -0x4(%ebp),%ebx
  1013f3:	c9                   	leave  
  1013f4:	c3                   	ret    

001013f5 <debug_output>:
  1013f5:	55                   	push   %ebp
  1013f6:	89 e5                	mov    %esp,%ebp
  1013f8:	83 ec 08             	sub    $0x8,%esp
  1013fb:	83 ec 0c             	sub    $0xc,%esp
  1013fe:	68 93 22 12 00       	push   $0x122293
  101403:	e8 a4 e1 01 00       	call   11f5ac <printf>
  101408:	83 c4 10             	add    $0x10,%esp
  10140b:	8b 45 08             	mov    0x8(%ebp),%eax
  10140e:	8b 40 24             	mov    0x24(%eax),%eax
  101411:	8b 04 85 20 80 12 00 	mov    0x128020(,%eax,4),%eax
  101418:	83 ec 08             	sub    $0x8,%esp
  10141b:	50                   	push   %eax
  10141c:	68 9f 22 12 00       	push   $0x12229f
  101421:	e8 86 e1 01 00       	call   11f5ac <printf>
  101426:	83 c4 10             	add    $0x10,%esp
  101429:	83 ec 0c             	sub    $0xc,%esp
  10142c:	68 a9 22 12 00       	push   $0x1222a9
  101431:	e8 76 e1 01 00       	call   11f5ac <printf>
  101436:	83 c4 10             	add    $0x10,%esp
  101439:	83 ec 0c             	sub    $0xc,%esp
  10143c:	ff 75 08             	push   0x8(%ebp)
  10143f:	e8 c3 60 00 00       	call   107507 <unwind_stack>
  101444:	83 c4 10             	add    $0x10,%esp
  101447:	83 ec 0c             	sub    $0xc,%esp
  10144a:	68 ae 22 12 00       	push   $0x1222ae
  10144f:	e8 58 e1 01 00       	call   11f5ac <printf>
  101454:	83 c4 10             	add    $0x10,%esp
  101457:	90                   	nop
  101458:	c9                   	leave  
  101459:	c3                   	ret    

0010145a <debug_c>:
  10145a:	55                   	push   %ebp
  10145b:	89 e5                	mov    %esp,%ebp
  10145d:	83 ec 18             	sub    $0x18,%esp
  101460:	83 ec 08             	sub    $0x8,%esp
  101463:	68 c5 22 12 00       	push   $0x1222c5
  101468:	ff 75 08             	push   0x8(%ebp)
  10146b:	e8 b8 fa 01 00       	call   120f28 <strcmp>
  101470:	83 c4 10             	add    $0x10,%esp
  101473:	85 c0                	test   %eax,%eax
  101475:	0f 85 8a 00 00 00    	jne    101505 <debug_c+0xab>
  10147b:	e8 82 1c 00 00       	call   103102 <cls>
  101480:	c7 45 f4 00 00 00 00 	movl   $0x0,-0xc(%ebp)
  101487:	eb 72                	jmp    1014fb <debug_c+0xa1>
  101489:	8b 45 f4             	mov    -0xc(%ebp),%eax
  10148c:	69 c0 84 05 00 00    	imul   $0x584,%eax,%eax
  101492:	05 a0 47 14 00       	add    $0x1447a0,%eax
  101497:	89 45 ec             	mov    %eax,-0x14(%ebp)
  10149a:	8b 45 ec             	mov    -0x14(%ebp),%eax
  10149d:	83 ec 08             	sub    $0x8,%esp
  1014a0:	50                   	push   %eax
  1014a1:	68 c9 22 12 00       	push   $0x1222c9
  1014a6:	e8 01 e1 01 00       	call   11f5ac <printf>
  1014ab:	83 c4 10             	add    $0x10,%esp
  1014ae:	8b 45 ec             	mov    -0x14(%ebp),%eax
  1014b1:	8b 80 80 01 00 00    	mov    0x180(%eax),%eax
  1014b7:	ff 75 0c             	push   0xc(%ebp)
  1014ba:	68 a0 47 14 00       	push   $0x1447a0
  1014bf:	6a 40                	push   $0x40
  1014c1:	50                   	push   %eax
  1014c2:	e8 e9 67 00 00       	call   107cb0 <print_stack_frame>
  1014c7:	83 c4 10             	add    $0x10,%esp
  1014ca:	83 ec 0c             	sub    $0xc,%esp
  1014cd:	68 e4 22 12 00       	push   $0x1222e4
  1014d2:	e8 d5 e0 01 00       	call   11f5ac <printf>
  1014d7:	83 c4 10             	add    $0x10,%esp
  1014da:	e8 48 bd 00 00       	call   10d227 <kb_getchar_w>
  1014df:	89 45 f0             	mov    %eax,-0x10(%ebp)
  1014e2:	eb 08                	jmp    1014ec <debug_c+0x92>
  1014e4:	e8 3e bd 00 00       	call   10d227 <kb_getchar_w>
  1014e9:	89 45 f0             	mov    %eax,-0x10(%ebp)
  1014ec:	83 7d f0 50          	cmpl   $0x50,-0x10(%ebp)
  1014f0:	75 f2                	jne    1014e4 <debug_c+0x8a>
  1014f2:	e8 0b 1c 00 00       	call   103102 <cls>
  1014f7:	83 45 f4 01          	addl   $0x1,-0xc(%ebp)
  1014fb:	a1 20 a5 12 00       	mov    0x12a520,%eax
  101500:	39 45 f4             	cmp    %eax,-0xc(%ebp)
  101503:	72 84                	jb     101489 <debug_c+0x2f>
  101505:	90                   	nop
  101506:	c9                   	leave  
  101507:	c3                   	ret    

00101508 <isr_exception_handler>:
  101508:	55                   	push   %ebp
  101509:	89 e5                	mov    %esp,%ebp
  10150b:	81 ec 18 04 00 00    	sub    $0x418,%esp
  101511:	8b 45 2c             	mov    0x2c(%ebp),%eax
  101514:	83 f8 1f             	cmp    $0x1f,%eax
  101517:	0f 87 41 01 00 00    	ja     10165e <isr_exception_handler+0x156>
  10151d:	e8 c6 07 00 00       	call   101ce8 <LockScheduler>
  101522:	a1 04 a0 12 00       	mov    0x12a004,%eax
  101527:	83 f8 09             	cmp    $0x9,%eax
  10152a:	0f 8f 19 01 00 00    	jg     101649 <isr_exception_handler+0x141>
  101530:	a1 04 a0 12 00       	mov    0x12a004,%eax
  101535:	83 c0 01             	add    $0x1,%eax
  101538:	a3 04 a0 12 00       	mov    %eax,0x12a004
  10153d:	83 ec 0c             	sub    $0xc,%esp
  101540:	8d 45 08             	lea    0x8(%ebp),%eax
  101543:	50                   	push   %eax
  101544:	e8 ef fd ff ff       	call   101338 <print_registers>
  101549:	83 c4 10             	add    $0x10,%esp
  10154c:	83 ec 0c             	sub    $0xc,%esp
  10154f:	8d 45 08             	lea    0x8(%ebp),%eax
  101552:	50                   	push   %eax
  101553:	e8 9d fe ff ff       	call   1013f5 <debug_output>
  101558:	83 c4 10             	add    $0x10,%esp
  10155b:	83 ec 0c             	sub    $0xc,%esp
  10155e:	68 11 23 12 00       	push   $0x122311
  101563:	e8 44 e0 01 00       	call   11f5ac <printf>
  101568:	83 c4 10             	add    $0x10,%esp
  10156b:	c7 45 f4 00 00 00 00 	movl   $0x0,-0xc(%ebp)
  101572:	e8 85 07 00 00       	call   101cfc <UnlockScheduler>
  101577:	83 ec 0c             	sub    $0xc,%esp
  10157a:	68 22 23 12 00       	push   $0x122322
  10157f:	e8 28 e0 01 00       	call   11f5ac <printf>
  101584:	83 c4 10             	add    $0x10,%esp
  101587:	e8 9b bc 00 00       	call   10d227 <kb_getchar_w>
  10158c:	89 45 f0             	mov    %eax,-0x10(%ebp)
  10158f:	eb 67                	jmp    1015f8 <isr_exception_handler+0xf0>
  101591:	83 7d f0 08          	cmpl   $0x8,-0x10(%ebp)
  101595:	75 2a                	jne    1015c1 <isr_exception_handler+0xb9>
  101597:	83 7d f4 00          	cmpl   $0x0,-0xc(%ebp)
  10159b:	7e 24                	jle    1015c1 <isr_exception_handler+0xb9>
  10159d:	83 ec 0c             	sub    $0xc,%esp
  1015a0:	68 2a 23 12 00       	push   $0x12232a
  1015a5:	e8 02 e0 01 00       	call   11f5ac <printf>
  1015aa:	83 c4 10             	add    $0x10,%esp
  1015ad:	8d 95 ec fb ff ff    	lea    -0x414(%ebp),%edx
  1015b3:	8b 45 f4             	mov    -0xc(%ebp),%eax
  1015b6:	01 d0                	add    %edx,%eax
  1015b8:	c6 00 00             	movb   $0x0,(%eax)
  1015bb:	83 6d f4 01          	subl   $0x1,-0xc(%ebp)
  1015bf:	eb 2f                	jmp    1015f0 <isr_exception_handler+0xe8>
  1015c1:	83 7d f0 00          	cmpl   $0x0,-0x10(%ebp)
  1015c5:	74 29                	je     1015f0 <isr_exception_handler+0xe8>
  1015c7:	83 ec 08             	sub    $0x8,%esp
  1015ca:	ff 75 f0             	push   -0x10(%ebp)
  1015cd:	68 2c 23 12 00       	push   $0x12232c
  1015d2:	e8 d5 df 01 00       	call   11f5ac <printf>
  1015d7:	83 c4 10             	add    $0x10,%esp
  1015da:	8b 45 f0             	mov    -0x10(%ebp),%eax
  1015dd:	89 c1                	mov    %eax,%ecx
  1015df:	8d 95 ec fb ff ff    	lea    -0x414(%ebp),%edx
  1015e5:	8b 45 f4             	mov    -0xc(%ebp),%eax
  1015e8:	01 d0                	add    %edx,%eax
  1015ea:	88 08                	mov    %cl,(%eax)
  1015ec:	83 45 f4 01          	addl   $0x1,-0xc(%ebp)
  1015f0:	e8 32 bc 00 00       	call   10d227 <kb_getchar_w>
  1015f5:	89 45 f0             	mov    %eax,-0x10(%ebp)
  1015f8:	83 7d f0 0a          	cmpl   $0xa,-0x10(%ebp)
  1015fc:	75 93                	jne    101591 <isr_exception_handler+0x89>
  1015fe:	8b 45 30             	mov    0x30(%ebp),%eax
  101601:	83 ec 08             	sub    $0x8,%esp
  101604:	50                   	push   %eax
  101605:	8d 85 ec fb ff ff    	lea    -0x414(%ebp),%eax
  10160b:	50                   	push   %eax
  10160c:	e8 49 fe ff ff       	call   10145a <debug_c>
  101611:	83 c4 10             	add    $0x10,%esp
  101614:	83 ec 0c             	sub    $0xc,%esp
  101617:	68 2f 23 12 00       	push   $0x12232f
  10161c:	e8 8b df 01 00       	call   11f5ac <printf>
  101621:	83 c4 10             	add    $0x10,%esp
  101624:	83 ec 04             	sub    $0x4,%esp
  101627:	68 00 04 00 00       	push   $0x400
  10162c:	6a 00                	push   $0x0
  10162e:	8d 85 ec fb ff ff    	lea    -0x414(%ebp),%eax
  101634:	50                   	push   %eax
  101635:	e8 84 f5 01 00       	call   120bbe <memset>
  10163a:	83 c4 10             	add    $0x10,%esp
  10163d:	c7 45 f4 00 00 00 00 	movl   $0x0,-0xc(%ebp)
  101644:	e9 2e ff ff ff       	jmp    101577 <isr_exception_handler+0x6f>
  101649:	83 ec 08             	sub    $0x8,%esp
  10164c:	68 31 23 12 00       	push   $0x122331
  101651:	68 5c 23 12 00       	push   $0x12235c
  101656:	e8 52 65 00 00       	call   107bad <kernel_panic>
  10165b:	83 c4 10             	add    $0x10,%esp
  10165e:	8b 45 2c             	mov    0x2c(%ebp),%eax
  101661:	8b 04 85 a0 9a 13 00 	mov    0x139aa0(,%eax,4),%eax
  101668:	85 c0                	test   %eax,%eax
  10166a:	74 1c                	je     101688 <isr_exception_handler+0x180>
  10166c:	8b 45 2c             	mov    0x2c(%ebp),%eax
  10166f:	8b 04 85 a0 9a 13 00 	mov    0x139aa0(,%eax,4),%eax
  101676:	89 45 ec             	mov    %eax,-0x14(%ebp)
  101679:	83 ec 0c             	sub    $0xc,%esp
  10167c:	8d 45 08             	lea    0x8(%ebp),%eax
  10167f:	50                   	push   %eax
  101680:	8b 45 ec             	mov    -0x14(%ebp),%eax
  101683:	ff d0                	call   *%eax
  101685:	83 c4 10             	add    $0x10,%esp
  101688:	90                   	nop
  101689:	c9                   	leave  
  10168a:	c3                   	ret    

0010168b <pic8259_init>:
  10168b:	55                   	push   %ebp
  10168c:	89 e5                	mov    %esp,%ebp
  10168e:	83 ec 18             	sub    $0x18,%esp
  101691:	83 ec 0c             	sub    $0xc,%esp
  101694:	6a 21                	push   $0x21
  101696:	e8 21 f4 ff ff       	call   100abc <inportb>
  10169b:	83 c4 10             	add    $0x10,%esp
  10169e:	88 45 f7             	mov    %al,-0x9(%ebp)
  1016a1:	83 ec 0c             	sub    $0xc,%esp
  1016a4:	68 a1 00 00 00       	push   $0xa1
  1016a9:	e8 0e f4 ff ff       	call   100abc <inportb>
  1016ae:	83 c4 10             	add    $0x10,%esp
  1016b1:	88 45 f6             	mov    %al,-0xa(%ebp)
  1016b4:	83 ec 08             	sub    $0x8,%esp
  1016b7:	6a 11                	push   $0x11
  1016b9:	6a 20                	push   $0x20
  1016bb:	e8 19 f4 ff ff       	call   100ad9 <outportb>
  1016c0:	83 c4 10             	add    $0x10,%esp
  1016c3:	83 ec 08             	sub    $0x8,%esp
  1016c6:	6a 11                	push   $0x11
  1016c8:	68 a0 00 00 00       	push   $0xa0
  1016cd:	e8 07 f4 ff ff       	call   100ad9 <outportb>
  1016d2:	83 c4 10             	add    $0x10,%esp
  1016d5:	83 ec 08             	sub    $0x8,%esp
  1016d8:	6a 20                	push   $0x20
  1016da:	6a 21                	push   $0x21
  1016dc:	e8 f8 f3 ff ff       	call   100ad9 <outportb>
  1016e1:	83 c4 10             	add    $0x10,%esp
  1016e4:	83 ec 08             	sub    $0x8,%esp
  1016e7:	6a 28                	push   $0x28
  1016e9:	68 a1 00 00 00       	push   $0xa1
  1016ee:	e8 e6 f3 ff ff       	call   100ad9 <outportb>
  1016f3:	83 c4 10             	add    $0x10,%esp
  1016f6:	83 ec 08             	sub    $0x8,%esp
  1016f9:	6a 04                	push   $0x4
  1016fb:	6a 21                	push   $0x21
  1016fd:	e8 d7 f3 ff ff       	call   100ad9 <outportb>
  101702:	83 c4 10             	add    $0x10,%esp
  101705:	83 ec 08             	sub    $0x8,%esp
  101708:	6a 02                	push   $0x2
  10170a:	68 a1 00 00 00       	push   $0xa1
  10170f:	e8 c5 f3 ff ff       	call   100ad9 <outportb>
  101714:	83 c4 10             	add    $0x10,%esp
  101717:	83 ec 08             	sub    $0x8,%esp
  10171a:	6a 01                	push   $0x1
  10171c:	6a 21                	push   $0x21
  10171e:	e8 b6 f3 ff ff       	call   100ad9 <outportb>
  101723:	83 c4 10             	add    $0x10,%esp
  101726:	83 ec 08             	sub    $0x8,%esp
  101729:	6a 01                	push   $0x1
  10172b:	68 a1 00 00 00       	push   $0xa1
  101730:	e8 a4 f3 ff ff       	call   100ad9 <outportb>
  101735:	83 c4 10             	add    $0x10,%esp
  101738:	83 ec 08             	sub    $0x8,%esp
  10173b:	6a 00                	push   $0x0
  10173d:	6a 21                	push   $0x21
  10173f:	e8 95 f3 ff ff       	call   100ad9 <outportb>
  101744:	83 c4 10             	add    $0x10,%esp
  101747:	83 ec 08             	sub    $0x8,%esp
  10174a:	6a 00                	push   $0x0
  10174c:	68 a1 00 00 00       	push   $0xa1
  101751:	e8 83 f3 ff ff       	call   100ad9 <outportb>
  101756:	83 c4 10             	add    $0x10,%esp
  101759:	90                   	nop
  10175a:	c9                   	leave  
  10175b:	c3                   	ret    

0010175c <pic8259_eoi>:
  10175c:	55                   	push   %ebp
  10175d:	89 e5                	mov    %esp,%ebp
  10175f:	83 ec 18             	sub    $0x18,%esp
  101762:	8b 45 08             	mov    0x8(%ebp),%eax
  101765:	88 45 f4             	mov    %al,-0xc(%ebp)
  101768:	80 7d f4 27          	cmpb   $0x27,-0xc(%ebp)
  10176c:	76 12                	jbe    101780 <pic8259_eoi+0x24>
  10176e:	83 ec 08             	sub    $0x8,%esp
  101771:	6a 20                	push   $0x20
  101773:	68 a0 00 00 00       	push   $0xa0
  101778:	e8 5c f3 ff ff       	call   100ad9 <outportb>
  10177d:	83 c4 10             	add    $0x10,%esp
  101780:	83 ec 08             	sub    $0x8,%esp
  101783:	6a 20                	push   $0x20
  101785:	6a 20                	push   $0x20
  101787:	e8 4d f3 ff ff       	call   100ad9 <outportb>
  10178c:	83 c4 10             	add    $0x10,%esp
  10178f:	90                   	nop
  101790:	c9                   	leave  
  101791:	c3                   	ret    

00101792 <fat_list_init>:
  101792:	55                   	push   %ebp
  101793:	89 e5                	mov    %esp,%ebp
  101795:	8b 45 08             	mov    0x8(%ebp),%eax
  101798:	c7 40 04 00 00 00 00 	movl   $0x0,0x4(%eax)
  10179f:	8b 45 08             	mov    0x8(%ebp),%eax
  1017a2:	8b 50 04             	mov    0x4(%eax),%edx
  1017a5:	8b 45 08             	mov    0x8(%ebp),%eax
  1017a8:	89 10                	mov    %edx,(%eax)
  1017aa:	90                   	nop
  1017ab:	5d                   	pop    %ebp
  1017ac:	c3                   	ret    

001017ad <fat_list_remove>:
  1017ad:	55                   	push   %ebp
  1017ae:	89 e5                	mov    %esp,%ebp
  1017b0:	8b 45 0c             	mov    0xc(%ebp),%eax
  1017b3:	8b 00                	mov    (%eax),%eax
  1017b5:	85 c0                	test   %eax,%eax
  1017b7:	75 0d                	jne    1017c6 <fat_list_remove+0x19>
  1017b9:	8b 45 0c             	mov    0xc(%ebp),%eax
  1017bc:	8b 50 04             	mov    0x4(%eax),%edx
  1017bf:	8b 45 08             	mov    0x8(%ebp),%eax
  1017c2:	89 10                	mov    %edx,(%eax)
  1017c4:	eb 0e                	jmp    1017d4 <fat_list_remove+0x27>
  1017c6:	8b 45 0c             	mov    0xc(%ebp),%eax
  1017c9:	8b 00                	mov    (%eax),%eax
  1017cb:	8b 55 0c             	mov    0xc(%ebp),%edx
  1017ce:	8b 52 04             	mov    0x4(%edx),%edx
  1017d1:	89 50 04             	mov    %edx,0x4(%eax)
  1017d4:	8b 45 0c             	mov    0xc(%ebp),%eax
  1017d7:	8b 40 04             	mov    0x4(%eax),%eax
  1017da:	85 c0                	test   %eax,%eax
  1017dc:	75 0d                	jne    1017eb <fat_list_remove+0x3e>
  1017de:	8b 45 0c             	mov    0xc(%ebp),%eax
  1017e1:	8b 10                	mov    (%eax),%edx
  1017e3:	8b 45 08             	mov    0x8(%ebp),%eax
  1017e6:	89 50 04             	mov    %edx,0x4(%eax)
  1017e9:	eb 0d                	jmp    1017f8 <fat_list_remove+0x4b>
  1017eb:	8b 45 0c             	mov    0xc(%ebp),%eax
  1017ee:	8b 40 04             	mov    0x4(%eax),%eax
  1017f1:	8b 55 0c             	mov    0xc(%ebp),%edx
  1017f4:	8b 12                	mov    (%edx),%edx
  1017f6:	89 10                	mov    %edx,(%eax)
  1017f8:	90                   	nop
  1017f9:	5d                   	pop    %ebp
  1017fa:	c3                   	ret    

001017fb <fat_list_insert_after>:
  1017fb:	55                   	push   %ebp
  1017fc:	89 e5                	mov    %esp,%ebp
  1017fe:	8b 45 10             	mov    0x10(%ebp),%eax
  101801:	8b 55 0c             	mov    0xc(%ebp),%edx
  101804:	89 10                	mov    %edx,(%eax)
  101806:	8b 45 0c             	mov    0xc(%ebp),%eax
  101809:	8b 50 04             	mov    0x4(%eax),%edx
  10180c:	8b 45 10             	mov    0x10(%ebp),%eax
  10180f:	89 50 04             	mov    %edx,0x4(%eax)
  101812:	8b 45 0c             	mov    0xc(%ebp),%eax
  101815:	8b 40 04             	mov    0x4(%eax),%eax
  101818:	85 c0                	test   %eax,%eax
  10181a:	75 0b                	jne    101827 <fat_list_insert_after+0x2c>
  10181c:	8b 45 08             	mov    0x8(%ebp),%eax
  10181f:	8b 55 10             	mov    0x10(%ebp),%edx
  101822:	89 50 04             	mov    %edx,0x4(%eax)
  101825:	eb 0b                	jmp    101832 <fat_list_insert_after+0x37>
  101827:	8b 45 0c             	mov    0xc(%ebp),%eax
  10182a:	8b 40 04             	mov    0x4(%eax),%eax
  10182d:	8b 55 10             	mov    0x10(%ebp),%edx
  101830:	89 10                	mov    %edx,(%eax)
  101832:	8b 45 0c             	mov    0xc(%ebp),%eax
  101835:	8b 55 10             	mov    0x10(%ebp),%edx
  101838:	89 50 04             	mov    %edx,0x4(%eax)
  10183b:	90                   	nop
  10183c:	5d                   	pop    %ebp
  10183d:	c3                   	ret    

0010183e <fat_list_insert_before>:
  10183e:	55                   	push   %ebp
  10183f:	89 e5                	mov    %esp,%ebp
  101841:	8b 45 0c             	mov    0xc(%ebp),%eax
  101844:	8b 10                	mov    (%eax),%edx
  101846:	8b 45 10             	mov    0x10(%ebp),%eax
  101849:	89 10                	mov    %edx,(%eax)
  10184b:	8b 45 10             	mov    0x10(%ebp),%eax
  10184e:	8b 55 0c             	mov    0xc(%ebp),%edx
  101851:	89 50 04             	mov    %edx,0x4(%eax)
  101854:	8b 45 0c             	mov    0xc(%ebp),%eax
  101857:	8b 00                	mov    (%eax),%eax
  101859:	85 c0                	test   %eax,%eax
  10185b:	75 0a                	jne    101867 <fat_list_insert_before+0x29>
  10185d:	8b 45 08             	mov    0x8(%ebp),%eax
  101860:	8b 55 10             	mov    0x10(%ebp),%edx
  101863:	89 10                	mov    %edx,(%eax)
  101865:	eb 0b                	jmp    101872 <fat_list_insert_before+0x34>
  101867:	8b 45 0c             	mov    0xc(%ebp),%eax
  10186a:	8b 00                	mov    (%eax),%eax
  10186c:	8b 55 10             	mov    0x10(%ebp),%edx
  10186f:	89 50 04             	mov    %edx,0x4(%eax)
  101872:	8b 45 0c             	mov    0xc(%ebp),%eax
  101875:	8b 55 10             	mov    0x10(%ebp),%edx
  101878:	89 10                	mov    %edx,(%eax)
  10187a:	90                   	nop
  10187b:	5d                   	pop    %ebp
  10187c:	c3                   	ret    

0010187d <fat_list_insert_first>:
  10187d:	55                   	push   %ebp
  10187e:	89 e5                	mov    %esp,%ebp
  101880:	8b 45 08             	mov    0x8(%ebp),%eax
  101883:	8b 00                	mov    (%eax),%eax
  101885:	85 c0                	test   %eax,%eax
  101887:	75 26                	jne    1018af <fat_list_insert_first+0x32>
  101889:	8b 45 08             	mov    0x8(%ebp),%eax
  10188c:	8b 55 0c             	mov    0xc(%ebp),%edx
  10188f:	89 10                	mov    %edx,(%eax)
  101891:	8b 45 08             	mov    0x8(%ebp),%eax
  101894:	8b 55 0c             	mov    0xc(%ebp),%edx
  101897:	89 50 04             	mov    %edx,0x4(%eax)
  10189a:	8b 45 0c             	mov    0xc(%ebp),%eax
  10189d:	c7 00 00 00 00 00    	movl   $0x0,(%eax)
  1018a3:	8b 45 0c             	mov    0xc(%ebp),%eax
  1018a6:	c7 40 04 00 00 00 00 	movl   $0x0,0x4(%eax)
  1018ad:	eb 14                	jmp    1018c3 <fat_list_insert_first+0x46>
  1018af:	8b 45 08             	mov    0x8(%ebp),%eax
  1018b2:	8b 00                	mov    (%eax),%eax
  1018b4:	ff 75 0c             	push   0xc(%ebp)
  1018b7:	50                   	push   %eax
  1018b8:	ff 75 08             	push   0x8(%ebp)
  1018bb:	e8 7e ff ff ff       	call   10183e <fat_list_insert_before>
  1018c0:	83 c4 0c             	add    $0xc,%esp
  1018c3:	90                   	nop
  1018c4:	c9                   	leave  
  1018c5:	c3                   	ret    

001018c6 <fat_list_insert_last>:
  1018c6:	55                   	push   %ebp
  1018c7:	89 e5                	mov    %esp,%ebp
  1018c9:	8b 45 08             	mov    0x8(%ebp),%eax
  1018cc:	8b 40 04             	mov    0x4(%eax),%eax
  1018cf:	85 c0                	test   %eax,%eax
  1018d1:	75 10                	jne    1018e3 <fat_list_insert_last+0x1d>
  1018d3:	ff 75 0c             	push   0xc(%ebp)
  1018d6:	ff 75 08             	push   0x8(%ebp)
  1018d9:	e8 9f ff ff ff       	call   10187d <fat_list_insert_first>
  1018de:	83 c4 08             	add    $0x8,%esp
  1018e1:	eb 15                	jmp    1018f8 <fat_list_insert_last+0x32>
  1018e3:	8b 45 08             	mov    0x8(%ebp),%eax
  1018e6:	8b 40 04             	mov    0x4(%eax),%eax
  1018e9:	ff 75 0c             	push   0xc(%ebp)
  1018ec:	50                   	push   %eax
  1018ed:	ff 75 08             	push   0x8(%ebp)
  1018f0:	e8 06 ff ff ff       	call   1017fb <fat_list_insert_after>
  1018f5:	83 c4 0c             	add    $0xc,%esp
  1018f8:	90                   	nop
  1018f9:	c9                   	leave  
  1018fa:	c3                   	ret    

001018fb <fat_list_is_empty>:
  1018fb:	55                   	push   %ebp
  1018fc:	89 e5                	mov    %esp,%ebp
  1018fe:	8b 45 08             	mov    0x8(%ebp),%eax
  101901:	8b 00                	mov    (%eax),%eax
  101903:	85 c0                	test   %eax,%eax
  101905:	0f 94 c0             	sete   %al
  101908:	0f b6 c0             	movzbl %al,%eax
  10190b:	5d                   	pop    %ebp
  10190c:	c3                   	ret    

0010190d <fat_list_pop_head>:
  10190d:	55                   	push   %ebp
  10190e:	89 e5                	mov    %esp,%ebp
  101910:	83 ec 10             	sub    $0x10,%esp
  101913:	8b 45 08             	mov    0x8(%ebp),%eax
  101916:	8b 00                	mov    (%eax),%eax
  101918:	89 45 fc             	mov    %eax,-0x4(%ebp)
  10191b:	83 7d fc 00          	cmpl   $0x0,-0x4(%ebp)
  10191f:	74 0e                	je     10192f <fat_list_pop_head+0x22>
  101921:	ff 75 fc             	push   -0x4(%ebp)
  101924:	ff 75 08             	push   0x8(%ebp)
  101927:	e8 81 fe ff ff       	call   1017ad <fat_list_remove>
  10192c:	83 c4 08             	add    $0x8,%esp
  10192f:	8b 45 fc             	mov    -0x4(%ebp),%eax
  101932:	c9                   	leave  
  101933:	c3                   	ret    

00101934 <InitScheduler>:
  101934:	55                   	push   %ebp
  101935:	89 e5                	mov    %esp,%ebp
  101937:	83 ec 18             	sub    $0x18,%esp
  10193a:	c7 45 f4 00 00 00 00 	movl   $0x0,-0xc(%ebp)
  101941:	eb 15                	jmp    101958 <InitScheduler+0x24>
  101943:	8b 45 f4             	mov    -0xc(%ebp),%eax
  101946:	c1 e0 07             	shl    $0x7,%eax
  101949:	05 d0 9e 13 00       	add    $0x139ed0,%eax
  10194e:	c7 00 00 00 00 00    	movl   $0x0,(%eax)
  101954:	83 45 f4 01          	addl   $0x1,-0xc(%ebp)
  101958:	81 7d f4 ff 00 00 00 	cmpl   $0xff,-0xc(%ebp)
  10195f:	7e e2                	jle    101943 <InitScheduler+0xf>
  101961:	c7 05 d0 9e 13 00 01 	movl   $0x1,0x139ed0
  101968:	00 00 00 
  10196b:	c7 05 c0 9e 13 00 00 	movl   $0x0,0x139ec0
  101972:	00 00 00 
  101975:	e8 3f 05 02 00       	call   121eb9 <GetCR3>
  10197a:	a3 c4 9e 13 00       	mov    %eax,0x139ec4
  10197f:	c7 05 cc 9e 13 00 00 	movl   $0x0,0x139ecc
  101986:	00 00 00 
  101989:	c7 05 c8 9e 13 00 00 	movl   $0x0,0x139ec8
  101990:	00 00 00 
  101993:	c7 05 d8 9e 13 00 00 	movl   $0x0,0x139ed8
  10199a:	00 00 00 
  10199d:	c7 05 c8 1e 14 00 c0 	movl   $0x139ec0,0x141ec8
  1019a4:	9e 13 00 
  1019a7:	a1 c8 1e 14 00       	mov    0x141ec8,%eax
  1019ac:	a3 d0 1e 14 00       	mov    %eax,0x141ed0
  1019b1:	c7 05 c4 1e 14 00 00 	movl   $0x0,0x141ec4
  1019b8:	00 00 00 
  1019bb:	c7 05 a4 9e 13 00 00 	movl   $0x0,0x139ea4
  1019c2:	00 00 00 
  1019c5:	c7 05 d4 1e 14 00 00 	movl   $0x0,0x141ed4
  1019cc:	00 00 00 
  1019cf:	c7 05 a8 9e 13 00 00 	movl   $0x0,0x139ea8
  1019d6:	00 00 00 
  1019d9:	c7 05 a0 9e 13 00 00 	movl   $0x0,0x139ea0
  1019e0:	00 00 00 
  1019e3:	c7 05 cc 1e 14 00 00 	movl   $0x0,0x141ecc
  1019ea:	00 00 00 
  1019ed:	e8 ff 05 00 00       	call   101ff1 <GetCurrentCounter>
  1019f2:	a3 c0 1e 14 00       	mov    %eax,0x141ec0
  1019f7:	90                   	nop
  1019f8:	c9                   	leave  
  1019f9:	c3                   	ret    

001019fa <PcbAlloc>:
  1019fa:	55                   	push   %ebp
  1019fb:	89 e5                	mov    %esp,%ebp
  1019fd:	83 ec 10             	sub    $0x10,%esp
  101a00:	c7 45 fc 00 00 00 00 	movl   $0x0,-0x4(%ebp)
  101a07:	eb 4d                	jmp    101a56 <PcbAlloc+0x5c>
  101a09:	8b 45 fc             	mov    -0x4(%ebp),%eax
  101a0c:	c1 e0 07             	shl    $0x7,%eax
  101a0f:	05 d0 9e 13 00       	add    $0x139ed0,%eax
  101a14:	8b 00                	mov    (%eax),%eax
  101a16:	85 c0                	test   %eax,%eax
  101a18:	75 38                	jne    101a52 <PcbAlloc+0x58>
  101a1a:	8b 45 fc             	mov    -0x4(%ebp),%eax
  101a1d:	c1 e0 07             	shl    $0x7,%eax
  101a20:	05 d0 9e 13 00       	add    $0x139ed0,%eax
  101a25:	c7 00 01 00 00 00    	movl   $0x1,(%eax)
  101a2b:	8b 45 fc             	mov    -0x4(%ebp),%eax
  101a2e:	05 81 01 00 00       	add    $0x181,%eax
  101a33:	c1 e0 0c             	shl    $0xc,%eax
  101a36:	89 c2                	mov    %eax,%edx
  101a38:	8b 45 fc             	mov    -0x4(%ebp),%eax
  101a3b:	c1 e0 07             	shl    $0x7,%eax
  101a3e:	05 c0 9e 13 00       	add    $0x139ec0,%eax
  101a43:	89 10                	mov    %edx,(%eax)
  101a45:	8b 45 fc             	mov    -0x4(%ebp),%eax
  101a48:	c1 e0 07             	shl    $0x7,%eax
  101a4b:	05 c0 9e 13 00       	add    $0x139ec0,%eax
  101a50:	eb 12                	jmp    101a64 <PcbAlloc+0x6a>
  101a52:	83 45 fc 01          	addl   $0x1,-0x4(%ebp)
  101a56:	81 7d fc ff 00 00 00 	cmpl   $0xff,-0x4(%ebp)
  101a5d:	7e aa                	jle    101a09 <PcbAlloc+0xf>
  101a5f:	b8 00 00 00 00       	mov    $0x0,%eax
  101a64:	c9                   	leave  
  101a65:	c3                   	ret    

00101a66 <PcbFree>:
  101a66:	55                   	push   %ebp
  101a67:	89 e5                	mov    %esp,%ebp
  101a69:	81 7d 08 c0 9e 13 00 	cmpl   $0x139ec0,0x8(%ebp)
  101a70:	72 15                	jb     101a87 <PcbFree+0x21>
  101a72:	81 7d 08 c0 1e 14 00 	cmpl   $0x141ec0,0x8(%ebp)
  101a79:	73 0c                	jae    101a87 <PcbFree+0x21>
  101a7b:	8b 45 08             	mov    0x8(%ebp),%eax
  101a7e:	c7 40 10 00 00 00 00 	movl   $0x0,0x10(%eax)
  101a85:	eb 01                	jmp    101a88 <PcbFree+0x22>
  101a87:	90                   	nop
  101a88:	5d                   	pop    %ebp
  101a89:	c3                   	ret    

00101a8a <ProcessStartup>:
  101a8a:	55                   	push   %ebp
  101a8b:	89 e5                	mov    %esp,%ebp
  101a8d:	83 ec 08             	sub    $0x8,%esp
  101a90:	e8 67 02 00 00       	call   101cfc <UnlockScheduler>
  101a95:	90                   	nop
  101a96:	c9                   	leave  
  101a97:	c3                   	ret    

00101a98 <AddReady>:
  101a98:	55                   	push   %ebp
  101a99:	89 e5                	mov    %esp,%ebp
  101a9b:	83 7d 08 00          	cmpl   $0x0,0x8(%ebp)
  101a9f:	74 46                	je     101ae7 <AddReady+0x4f>
  101aa1:	8b 45 08             	mov    0x8(%ebp),%eax
  101aa4:	c7 40 0c 01 00 00 00 	movl   $0x1,0xc(%eax)
  101aab:	8b 45 08             	mov    0x8(%ebp),%eax
  101aae:	c7 40 08 00 00 00 00 	movl   $0x0,0x8(%eax)
  101ab5:	a1 c4 1e 14 00       	mov    0x141ec4,%eax
  101aba:	85 c0                	test   %eax,%eax
  101abc:	75 14                	jne    101ad2 <AddReady+0x3a>
  101abe:	8b 45 08             	mov    0x8(%ebp),%eax
  101ac1:	a3 a4 9e 13 00       	mov    %eax,0x139ea4
  101ac6:	a1 a4 9e 13 00       	mov    0x139ea4,%eax
  101acb:	a3 c4 1e 14 00       	mov    %eax,0x141ec4
  101ad0:	eb 16                	jmp    101ae8 <AddReady+0x50>
  101ad2:	a1 a4 9e 13 00       	mov    0x139ea4,%eax
  101ad7:	8b 55 08             	mov    0x8(%ebp),%edx
  101ada:	89 50 08             	mov    %edx,0x8(%eax)
  101add:	8b 45 08             	mov    0x8(%ebp),%eax
  101ae0:	a3 a4 9e 13 00       	mov    %eax,0x139ea4
  101ae5:	eb 01                	jmp    101ae8 <AddReady+0x50>
  101ae7:	90                   	nop
  101ae8:	5d                   	pop    %ebp
  101ae9:	c3                   	ret    

00101aea <NextReady>:
  101aea:	55                   	push   %ebp
  101aeb:	89 e5                	mov    %esp,%ebp
  101aed:	83 ec 10             	sub    $0x10,%esp
  101af0:	a1 c4 1e 14 00       	mov    0x141ec4,%eax
  101af5:	85 c0                	test   %eax,%eax
  101af7:	75 07                	jne    101b00 <NextReady+0x16>
  101af9:	b8 00 00 00 00       	mov    $0x0,%eax
  101afe:	eb 35                	jmp    101b35 <NextReady+0x4b>
  101b00:	a1 c4 1e 14 00       	mov    0x141ec4,%eax
  101b05:	89 45 fc             	mov    %eax,-0x4(%ebp)
  101b08:	a1 c4 1e 14 00       	mov    0x141ec4,%eax
  101b0d:	8b 40 08             	mov    0x8(%eax),%eax
  101b10:	a3 c4 1e 14 00       	mov    %eax,0x141ec4
  101b15:	a1 c4 1e 14 00       	mov    0x141ec4,%eax
  101b1a:	85 c0                	test   %eax,%eax
  101b1c:	75 0a                	jne    101b28 <NextReady+0x3e>
  101b1e:	a1 c4 1e 14 00       	mov    0x141ec4,%eax
  101b23:	a3 a4 9e 13 00       	mov    %eax,0x139ea4
  101b28:	8b 45 fc             	mov    -0x4(%ebp),%eax
  101b2b:	c7 40 08 00 00 00 00 	movl   $0x0,0x8(%eax)
  101b32:	8b 45 fc             	mov    -0x4(%ebp),%eax
  101b35:	c9                   	leave  
  101b36:	c3                   	ret    

00101b37 <CreateProcess>:
  101b37:	55                   	push   %ebp
  101b38:	89 e5                	mov    %esp,%ebp
  101b3a:	83 ec 18             	sub    $0x18,%esp
  101b3d:	e8 b8 fe ff ff       	call   1019fa <PcbAlloc>
  101b42:	89 45 f4             	mov    %eax,-0xc(%ebp)
  101b45:	83 7d f4 00          	cmpl   $0x0,-0xc(%ebp)
  101b49:	75 08                	jne    101b53 <CreateProcess+0x1c>
  101b4b:	8b 45 f4             	mov    -0xc(%ebp),%eax
  101b4e:	e9 9a 00 00 00       	jmp    101bed <CreateProcess+0xb6>
  101b53:	8b 45 f4             	mov    -0xc(%ebp),%eax
  101b56:	8b 00                	mov    (%eax),%eax
  101b58:	89 45 f0             	mov    %eax,-0x10(%ebp)
  101b5b:	83 6d f0 04          	subl   $0x4,-0x10(%ebp)
  101b5f:	8b 55 08             	mov    0x8(%ebp),%edx
  101b62:	8b 45 f0             	mov    -0x10(%ebp),%eax
  101b65:	89 10                	mov    %edx,(%eax)
  101b67:	83 6d f0 04          	subl   $0x4,-0x10(%ebp)
  101b6b:	ba 8a 1a 10 00       	mov    $0x101a8a,%edx
  101b70:	8b 45 f0             	mov    -0x10(%ebp),%eax
  101b73:	89 10                	mov    %edx,(%eax)
  101b75:	83 6d f0 04          	subl   $0x4,-0x10(%ebp)
  101b79:	8b 45 f0             	mov    -0x10(%ebp),%eax
  101b7c:	c7 00 00 00 00 00    	movl   $0x0,(%eax)
  101b82:	83 6d f0 04          	subl   $0x4,-0x10(%ebp)
  101b86:	8b 45 f0             	mov    -0x10(%ebp),%eax
  101b89:	c7 00 00 00 00 00    	movl   $0x0,(%eax)
  101b8f:	83 6d f0 04          	subl   $0x4,-0x10(%ebp)
  101b93:	8b 45 f0             	mov    -0x10(%ebp),%eax
  101b96:	c7 00 00 00 00 00    	movl   $0x0,(%eax)
  101b9c:	83 6d f0 04          	subl   $0x4,-0x10(%ebp)
  101ba0:	8b 45 f0             	mov    -0x10(%ebp),%eax
  101ba3:	c7 00 00 00 00 00    	movl   $0x0,(%eax)
  101ba9:	8b 55 f0             	mov    -0x10(%ebp),%edx
  101bac:	8b 45 f4             	mov    -0xc(%ebp),%eax
  101baf:	89 10                	mov    %edx,(%eax)
  101bb1:	e8 03 03 02 00       	call   121eb9 <GetCR3>
  101bb6:	89 c2                	mov    %eax,%edx
  101bb8:	8b 45 f4             	mov    -0xc(%ebp),%eax
  101bbb:	89 50 04             	mov    %edx,0x4(%eax)
  101bbe:	8b 45 f4             	mov    -0xc(%ebp),%eax
  101bc1:	c7 40 14 ff ff ff ff 	movl   $0xffffffff,0x14(%eax)
  101bc8:	8b 45 f4             	mov    -0xc(%ebp),%eax
  101bcb:	c7 40 18 00 00 00 00 	movl   $0x0,0x18(%eax)
  101bd2:	e8 42 01 00 00       	call   101d19 <LockAndPostpone>
  101bd7:	83 ec 0c             	sub    $0xc,%esp
  101bda:	ff 75 f4             	push   -0xc(%ebp)
  101bdd:	e8 b6 fe ff ff       	call   101a98 <AddReady>
  101be2:	83 c4 10             	add    $0x10,%esp
  101be5:	e8 47 01 00 00       	call   101d31 <UnlockAndSchedule>
  101bea:	8b 45 f4             	mov    -0xc(%ebp),%eax
  101bed:	c9                   	leave  
  101bee:	c3                   	ret    

00101bef <Schedule>:
  101bef:	55                   	push   %ebp
  101bf0:	89 e5                	mov    %esp,%ebp
  101bf2:	83 ec 18             	sub    $0x18,%esp
  101bf5:	a1 0c a0 12 00       	mov    0x12a00c,%eax
  101bfa:	85 c0                	test   %eax,%eax
  101bfc:	74 0c                	je     101c0a <Schedule+0x1b>
  101bfe:	c6 05 10 a0 12 00 01 	movb   $0x1,0x12a010
  101c05:	e9 84 00 00 00       	jmp    101c8e <Schedule+0x9f>
  101c0a:	e8 db fe ff ff       	call   101aea <NextReady>
  101c0f:	89 45 f4             	mov    %eax,-0xc(%ebp)
  101c12:	83 7d f4 00          	cmpl   $0x0,-0xc(%ebp)
  101c16:	74 1a                	je     101c32 <Schedule+0x43>
  101c18:	8b 45 f4             	mov    -0xc(%ebp),%eax
  101c1b:	c7 40 18 01 00 00 00 	movl   $0x1,0x18(%eax)
  101c22:	83 ec 0c             	sub    $0xc,%esp
  101c25:	ff 75 f4             	push   -0xc(%ebp)
  101c28:	e8 33 02 02 00       	call   121e60 <SwitchToTask>
  101c2d:	83 c4 10             	add    $0x10,%esp
  101c30:	eb 5c                	jmp    101c8e <Schedule+0x9f>
  101c32:	a1 c8 1e 14 00       	mov    0x141ec8,%eax
  101c37:	8b 40 0c             	mov    0xc(%eax),%eax
  101c3a:	85 c0                	test   %eax,%eax
  101c3c:	74 4f                	je     101c8d <Schedule+0x9e>
  101c3e:	a1 c8 1e 14 00       	mov    0x141ec8,%eax
  101c43:	89 45 f0             	mov    %eax,-0x10(%ebp)
  101c46:	c7 05 c8 1e 14 00 00 	movl   $0x0,0x141ec8
  101c4d:	00 00 00 
  101c50:	fb                   	sti    
  101c51:	f4                   	hlt    
  101c52:	fa                   	cli    
  101c53:	e8 92 fe ff ff       	call   101aea <NextReady>
  101c58:	89 45 f4             	mov    %eax,-0xc(%ebp)
  101c5b:	83 7d f4 00          	cmpl   $0x0,-0xc(%ebp)
  101c5f:	74 ef                	je     101c50 <Schedule+0x61>
  101c61:	8b 45 f0             	mov    -0x10(%ebp),%eax
  101c64:	a3 c8 1e 14 00       	mov    %eax,0x141ec8
  101c69:	8b 45 f4             	mov    -0xc(%ebp),%eax
  101c6c:	c7 40 18 01 00 00 00 	movl   $0x1,0x18(%eax)
  101c73:	a1 c8 1e 14 00       	mov    0x141ec8,%eax
  101c78:	39 45 f4             	cmp    %eax,-0xc(%ebp)
  101c7b:	74 11                	je     101c8e <Schedule+0x9f>
  101c7d:	83 ec 0c             	sub    $0xc,%esp
  101c80:	ff 75 f4             	push   -0xc(%ebp)
  101c83:	e8 d8 01 02 00       	call   121e60 <SwitchToTask>
  101c88:	83 c4 10             	add    $0x10,%esp
  101c8b:	eb 01                	jmp    101c8e <Schedule+0x9f>
  101c8d:	90                   	nop
  101c8e:	c9                   	leave  
  101c8f:	c3                   	ret    

00101c90 <UpdateTimeUsed>:
  101c90:	55                   	push   %ebp
  101c91:	89 e5                	mov    %esp,%ebp
  101c93:	83 ec 18             	sub    $0x18,%esp
  101c96:	a1 c0 1e 14 00       	mov    0x141ec0,%eax
  101c9b:	89 45 f4             	mov    %eax,-0xc(%ebp)
  101c9e:	e8 4e 03 00 00       	call   101ff1 <GetCurrentCounter>
  101ca3:	a3 c0 1e 14 00       	mov    %eax,0x141ec0
  101ca8:	a1 c8 1e 14 00       	mov    0x141ec8,%eax
  101cad:	85 c0                	test   %eax,%eax
  101caf:	75 18                	jne    101cc9 <UpdateTimeUsed+0x39>
  101cb1:	a1 c0 1e 14 00       	mov    0x141ec0,%eax
  101cb6:	2b 45 f4             	sub    -0xc(%ebp),%eax
  101cb9:	89 c2                	mov    %eax,%edx
  101cbb:	a1 08 a0 12 00       	mov    0x12a008,%eax
  101cc0:	01 d0                	add    %edx,%eax
  101cc2:	a3 08 a0 12 00       	mov    %eax,0x12a008
  101cc7:	eb 1c                	jmp    101ce5 <UpdateTimeUsed+0x55>
  101cc9:	a1 c8 1e 14 00       	mov    0x141ec8,%eax
  101cce:	8b 48 10             	mov    0x10(%eax),%ecx
  101cd1:	a1 c0 1e 14 00       	mov    0x141ec0,%eax
  101cd6:	2b 45 f4             	sub    -0xc(%ebp),%eax
  101cd9:	89 c2                	mov    %eax,%edx
  101cdb:	a1 c8 1e 14 00       	mov    0x141ec8,%eax
  101ce0:	01 ca                	add    %ecx,%edx
  101ce2:	89 50 10             	mov    %edx,0x10(%eax)
  101ce5:	90                   	nop
  101ce6:	c9                   	leave  
  101ce7:	c3                   	ret    

00101ce8 <LockScheduler>:
  101ce8:	55                   	push   %ebp
  101ce9:	89 e5                	mov    %esp,%ebp
  101ceb:	fa                   	cli    
  101cec:	a1 14 a0 12 00       	mov    0x12a014,%eax
  101cf1:	83 c0 01             	add    $0x1,%eax
  101cf4:	a3 14 a0 12 00       	mov    %eax,0x12a014
  101cf9:	90                   	nop
  101cfa:	5d                   	pop    %ebp
  101cfb:	c3                   	ret    

00101cfc <UnlockScheduler>:
  101cfc:	55                   	push   %ebp
  101cfd:	89 e5                	mov    %esp,%ebp
  101cff:	a1 14 a0 12 00       	mov    0x12a014,%eax
  101d04:	83 e8 01             	sub    $0x1,%eax
  101d07:	a3 14 a0 12 00       	mov    %eax,0x12a014
  101d0c:	a1 14 a0 12 00       	mov    0x12a014,%eax
  101d11:	85 c0                	test   %eax,%eax
  101d13:	75 01                	jne    101d16 <UnlockScheduler+0x1a>
  101d15:	fb                   	sti    
  101d16:	90                   	nop
  101d17:	5d                   	pop    %ebp
  101d18:	c3                   	ret    

00101d19 <LockAndPostpone>:
  101d19:	55                   	push   %ebp
  101d1a:	89 e5                	mov    %esp,%ebp
  101d1c:	e8 c7 ff ff ff       	call   101ce8 <LockScheduler>
  101d21:	a1 0c a0 12 00       	mov    0x12a00c,%eax
  101d26:	83 c0 01             	add    $0x1,%eax
  101d29:	a3 0c a0 12 00       	mov    %eax,0x12a00c
  101d2e:	90                   	nop
  101d2f:	5d                   	pop    %ebp
  101d30:	c3                   	ret    

00101d31 <UnlockAndSchedule>:
  101d31:	55                   	push   %ebp
  101d32:	89 e5                	mov    %esp,%ebp
  101d34:	83 ec 08             	sub    $0x8,%esp
  101d37:	a1 0c a0 12 00       	mov    0x12a00c,%eax
  101d3c:	83 e8 01             	sub    $0x1,%eax
  101d3f:	a3 0c a0 12 00       	mov    %eax,0x12a00c
  101d44:	a1 0c a0 12 00       	mov    0x12a00c,%eax
  101d49:	85 c0                	test   %eax,%eax
  101d4b:	75 17                	jne    101d64 <UnlockAndSchedule+0x33>
  101d4d:	0f b6 05 10 a0 12 00 	movzbl 0x12a010,%eax
  101d54:	84 c0                	test   %al,%al
  101d56:	74 0c                	je     101d64 <UnlockAndSchedule+0x33>
  101d58:	c6 05 10 a0 12 00 00 	movb   $0x0,0x12a010
  101d5f:	e8 8b fe ff ff       	call   101bef <Schedule>
  101d64:	e8 93 ff ff ff       	call   101cfc <UnlockScheduler>
  101d69:	90                   	nop
  101d6a:	c9                   	leave  
  101d6b:	c3                   	ret    

00101d6c <BlockProcess>:
  101d6c:	55                   	push   %ebp
  101d6d:	89 e5                	mov    %esp,%ebp
  101d6f:	83 ec 08             	sub    $0x8,%esp
  101d72:	e8 a2 ff ff ff       	call   101d19 <LockAndPostpone>
  101d77:	a1 c8 1e 14 00       	mov    0x141ec8,%eax
  101d7c:	8b 55 08             	mov    0x8(%ebp),%edx
  101d7f:	89 50 0c             	mov    %edx,0xc(%eax)
  101d82:	e8 68 fe ff ff       	call   101bef <Schedule>
  101d87:	e8 a5 ff ff ff       	call   101d31 <UnlockAndSchedule>
  101d8c:	90                   	nop
  101d8d:	c9                   	leave  
  101d8e:	c3                   	ret    

00101d8f <UnblockProcess>:
  101d8f:	55                   	push   %ebp
  101d90:	89 e5                	mov    %esp,%ebp
  101d92:	83 ec 08             	sub    $0x8,%esp
  101d95:	e8 7f ff ff ff       	call   101d19 <LockAndPostpone>
  101d9a:	ff 75 08             	push   0x8(%ebp)
  101d9d:	e8 f6 fc ff ff       	call   101a98 <AddReady>
  101da2:	83 c4 04             	add    $0x4,%esp
  101da5:	e8 87 ff ff ff       	call   101d31 <UnlockAndSchedule>
  101daa:	90                   	nop
  101dab:	c9                   	leave  
  101dac:	c3                   	ret    

00101dad <AddSleeping>:
  101dad:	55                   	push   %ebp
  101dae:	89 e5                	mov    %esp,%ebp
  101db0:	83 7d 08 00          	cmpl   $0x0,0x8(%ebp)
  101db4:	74 3c                	je     101df2 <AddSleeping+0x45>
  101db6:	8b 45 08             	mov    0x8(%ebp),%eax
  101db9:	c7 40 0c 03 00 00 00 	movl   $0x3,0xc(%eax)
  101dc0:	a1 d4 1e 14 00       	mov    0x141ed4,%eax
  101dc5:	85 c0                	test   %eax,%eax
  101dc7:	75 14                	jne    101ddd <AddSleeping+0x30>
  101dc9:	8b 45 08             	mov    0x8(%ebp),%eax
  101dcc:	a3 a8 9e 13 00       	mov    %eax,0x139ea8
  101dd1:	a1 a8 9e 13 00       	mov    0x139ea8,%eax
  101dd6:	a3 d4 1e 14 00       	mov    %eax,0x141ed4
  101ddb:	eb 16                	jmp    101df3 <AddSleeping+0x46>
  101ddd:	a1 a8 9e 13 00       	mov    0x139ea8,%eax
  101de2:	8b 55 08             	mov    0x8(%ebp),%edx
  101de5:	89 50 08             	mov    %edx,0x8(%eax)
  101de8:	8b 45 08             	mov    0x8(%ebp),%eax
  101deb:	a3 a8 9e 13 00       	mov    %eax,0x139ea8
  101df0:	eb 01                	jmp    101df3 <AddSleeping+0x46>
  101df2:	90                   	nop
  101df3:	5d                   	pop    %ebp
  101df4:	c3                   	ret    

00101df5 <SleepUntil>:
  101df5:	55                   	push   %ebp
  101df6:	89 e5                	mov    %esp,%ebp
  101df8:	83 ec 08             	sub    $0x8,%esp
  101dfb:	e8 19 ff ff ff       	call   101d19 <LockAndPostpone>
  101e00:	e8 ec 01 00 00       	call   101ff1 <GetCurrentCounter>
  101e05:	39 45 08             	cmp    %eax,0x8(%ebp)
  101e08:	73 07                	jae    101e11 <SleepUntil+0x1c>
  101e0a:	e8 22 ff ff ff       	call   101d31 <UnlockAndSchedule>
  101e0f:	eb 2e                	jmp    101e3f <SleepUntil+0x4a>
  101e11:	a1 c8 1e 14 00       	mov    0x141ec8,%eax
  101e16:	8b 55 08             	mov    0x8(%ebp),%edx
  101e19:	89 50 14             	mov    %edx,0x14(%eax)
  101e1c:	a1 c8 1e 14 00       	mov    0x141ec8,%eax
  101e21:	83 ec 0c             	sub    $0xc,%esp
  101e24:	50                   	push   %eax
  101e25:	e8 83 ff ff ff       	call   101dad <AddSleeping>
  101e2a:	83 c4 10             	add    $0x10,%esp
  101e2d:	e8 ff fe ff ff       	call   101d31 <UnlockAndSchedule>
  101e32:	83 ec 0c             	sub    $0xc,%esp
  101e35:	6a 03                	push   $0x3
  101e37:	e8 30 ff ff ff       	call   101d6c <BlockProcess>
  101e3c:	83 c4 10             	add    $0x10,%esp
  101e3f:	c9                   	leave  
  101e40:	c3                   	ret    

00101e41 <IrqTimerHandler>:
  101e41:	55                   	push   %ebp
  101e42:	89 e5                	mov    %esp,%ebp
  101e44:	83 ec 18             	sub    $0x18,%esp
  101e47:	a1 d8 1e 14 00       	mov    0x141ed8,%eax
  101e4c:	83 c0 01             	add    $0x1,%eax
  101e4f:	a3 d8 1e 14 00       	mov    %eax,0x141ed8
  101e54:	a1 d4 1e 14 00       	mov    0x141ed4,%eax
  101e59:	89 45 f0             	mov    %eax,-0x10(%ebp)
  101e5c:	8b 45 f0             	mov    -0x10(%ebp),%eax
  101e5f:	89 45 f4             	mov    %eax,-0xc(%ebp)
  101e62:	c7 05 a8 9e 13 00 00 	movl   $0x0,0x139ea8
  101e69:	00 00 00 
  101e6c:	a1 a8 9e 13 00       	mov    0x139ea8,%eax
  101e71:	a3 d4 1e 14 00       	mov    %eax,0x141ed4
  101e76:	eb 46                	jmp    101ebe <IrqTimerHandler+0x7d>
  101e78:	8b 45 f4             	mov    -0xc(%ebp),%eax
  101e7b:	8b 40 08             	mov    0x8(%eax),%eax
  101e7e:	89 45 f0             	mov    %eax,-0x10(%ebp)
  101e81:	8b 45 f4             	mov    -0xc(%ebp),%eax
  101e84:	c7 40 08 00 00 00 00 	movl   $0x0,0x8(%eax)
  101e8b:	8b 45 f4             	mov    -0xc(%ebp),%eax
  101e8e:	8b 50 14             	mov    0x14(%eax),%edx
  101e91:	a1 d8 1e 14 00       	mov    0x141ed8,%eax
  101e96:	39 c2                	cmp    %eax,%edx
  101e98:	77 10                	ja     101eaa <IrqTimerHandler+0x69>
  101e9a:	83 ec 0c             	sub    $0xc,%esp
  101e9d:	ff 75 f4             	push   -0xc(%ebp)
  101ea0:	e8 ea fe ff ff       	call   101d8f <UnblockProcess>
  101ea5:	83 c4 10             	add    $0x10,%esp
  101ea8:	eb 0e                	jmp    101eb8 <IrqTimerHandler+0x77>
  101eaa:	83 ec 0c             	sub    $0xc,%esp
  101ead:	ff 75 f4             	push   -0xc(%ebp)
  101eb0:	e8 f8 fe ff ff       	call   101dad <AddSleeping>
  101eb5:	83 c4 10             	add    $0x10,%esp
  101eb8:	8b 45 f0             	mov    -0x10(%ebp),%eax
  101ebb:	89 45 f4             	mov    %eax,-0xc(%ebp)
  101ebe:	83 7d f4 00          	cmpl   $0x0,-0xc(%ebp)
  101ec2:	75 b4                	jne    101e78 <IrqTimerHandler+0x37>
  101ec4:	a1 c8 1e 14 00       	mov    0x141ec8,%eax
  101ec9:	85 c0                	test   %eax,%eax
  101ecb:	74 1f                	je     101eec <IrqTimerHandler+0xab>
  101ecd:	a1 c8 1e 14 00       	mov    0x141ec8,%eax
  101ed2:	8b 50 18             	mov    0x18(%eax),%edx
  101ed5:	83 ea 01             	sub    $0x1,%edx
  101ed8:	89 50 18             	mov    %edx,0x18(%eax)
  101edb:	a1 c8 1e 14 00       	mov    0x141ec8,%eax
  101ee0:	8b 40 18             	mov    0x18(%eax),%eax
  101ee3:	85 c0                	test   %eax,%eax
  101ee5:	7f 05                	jg     101eec <IrqTimerHandler+0xab>
  101ee7:	e8 03 fd ff ff       	call   101bef <Schedule>
  101eec:	90                   	nop
  101eed:	c9                   	leave  
  101eee:	c3                   	ret    

00101eef <AddTerminated>:
  101eef:	55                   	push   %ebp
  101ef0:	89 e5                	mov    %esp,%ebp
  101ef2:	83 7d 08 00          	cmpl   $0x0,0x8(%ebp)
  101ef6:	74 3c                	je     101f34 <AddTerminated+0x45>
  101ef8:	8b 45 08             	mov    0x8(%ebp),%eax
  101efb:	c7 40 0c 03 00 00 00 	movl   $0x3,0xc(%eax)
  101f02:	a1 a0 9e 13 00       	mov    0x139ea0,%eax
  101f07:	85 c0                	test   %eax,%eax
  101f09:	75 14                	jne    101f1f <AddTerminated+0x30>
  101f0b:	8b 45 08             	mov    0x8(%ebp),%eax
  101f0e:	a3 cc 1e 14 00       	mov    %eax,0x141ecc
  101f13:	a1 cc 1e 14 00       	mov    0x141ecc,%eax
  101f18:	a3 a0 9e 13 00       	mov    %eax,0x139ea0
  101f1d:	eb 16                	jmp    101f35 <AddTerminated+0x46>
  101f1f:	a1 cc 1e 14 00       	mov    0x141ecc,%eax
  101f24:	8b 55 08             	mov    0x8(%ebp),%edx
  101f27:	89 50 08             	mov    %edx,0x8(%eax)
  101f2a:	8b 45 08             	mov    0x8(%ebp),%eax
  101f2d:	a3 cc 1e 14 00       	mov    %eax,0x141ecc
  101f32:	eb 01                	jmp    101f35 <AddTerminated+0x46>
  101f34:	90                   	nop
  101f35:	5d                   	pop    %ebp
  101f36:	c3                   	ret    

00101f37 <TerminateProcess>:
  101f37:	55                   	push   %ebp
  101f38:	89 e5                	mov    %esp,%ebp
  101f3a:	83 ec 08             	sub    $0x8,%esp
  101f3d:	e8 d7 fd ff ff       	call   101d19 <LockAndPostpone>
  101f42:	a1 c8 1e 14 00       	mov    0x141ec8,%eax
  101f47:	50                   	push   %eax
  101f48:	e8 a2 ff ff ff       	call   101eef <AddTerminated>
  101f4d:	83 c4 04             	add    $0x4,%esp
  101f50:	83 ec 0c             	sub    $0xc,%esp
  101f53:	6a 04                	push   $0x4
  101f55:	e8 12 fe ff ff       	call   101d6c <BlockProcess>
  101f5a:	83 c4 10             	add    $0x10,%esp
  101f5d:	a1 d0 1e 14 00       	mov    0x141ed0,%eax
  101f62:	83 ec 0c             	sub    $0xc,%esp
  101f65:	50                   	push   %eax
  101f66:	e8 24 fe ff ff       	call   101d8f <UnblockProcess>
  101f6b:	83 c4 10             	add    $0x10,%esp
  101f6e:	e8 be fd ff ff       	call   101d31 <UnlockAndSchedule>
  101f73:	90                   	nop
  101f74:	c9                   	leave  
  101f75:	c3                   	ret    

00101f76 <PerformButler>:
  101f76:	55                   	push   %ebp
  101f77:	89 e5                	mov    %esp,%ebp
  101f79:	83 ec 18             	sub    $0x18,%esp
  101f7c:	e8 98 fd ff ff       	call   101d19 <LockAndPostpone>
  101f81:	a1 a0 9e 13 00       	mov    0x139ea0,%eax
  101f86:	85 c0                	test   %eax,%eax
  101f88:	75 14                	jne    101f9e <PerformButler+0x28>
  101f8a:	83 ec 0c             	sub    $0xc,%esp
  101f8d:	6a 02                	push   $0x2
  101f8f:	e8 d8 fd ff ff       	call   101d6c <BlockProcess>
  101f94:	83 c4 10             	add    $0x10,%esp
  101f97:	e8 95 fd ff ff       	call   101d31 <UnlockAndSchedule>
  101f9c:	eb 3b                	jmp    101fd9 <PerformButler+0x63>
  101f9e:	a1 a0 9e 13 00       	mov    0x139ea0,%eax
  101fa3:	89 45 f4             	mov    %eax,-0xc(%ebp)
  101fa6:	a1 a0 9e 13 00       	mov    0x139ea0,%eax
  101fab:	8b 40 08             	mov    0x8(%eax),%eax
  101fae:	a3 a0 9e 13 00       	mov    %eax,0x139ea0
  101fb3:	a1 a0 9e 13 00       	mov    0x139ea0,%eax
  101fb8:	85 c0                	test   %eax,%eax
  101fba:	75 0a                	jne    101fc6 <PerformButler+0x50>
  101fbc:	a1 a0 9e 13 00       	mov    0x139ea0,%eax
  101fc1:	a3 cc 1e 14 00       	mov    %eax,0x141ecc
  101fc6:	83 ec 0c             	sub    $0xc,%esp
  101fc9:	ff 75 f4             	push   -0xc(%ebp)
  101fcc:	e8 95 fa ff ff       	call   101a66 <PcbFree>
  101fd1:	83 c4 10             	add    $0x10,%esp
  101fd4:	e8 58 fd ff ff       	call   101d31 <UnlockAndSchedule>
  101fd9:	eb a1                	jmp    101f7c <PerformButler+0x6>

00101fdb <GetCurrentTask>:
  101fdb:	55                   	push   %ebp
  101fdc:	89 e5                	mov    %esp,%ebp
  101fde:	a1 c8 1e 14 00       	mov    0x141ec8,%eax
  101fe3:	5d                   	pop    %ebp
  101fe4:	c3                   	ret    

00101fe5 <SetIdtEntry>:
  101fe5:	55                   	push   %ebp
  101fe6:	89 e5                	mov    %esp,%ebp
  101fe8:	90                   	nop
  101fe9:	5d                   	pop    %ebp
  101fea:	c3                   	ret    

00101feb <InitTimer>:
  101feb:	55                   	push   %ebp
  101fec:	89 e5                	mov    %esp,%ebp
  101fee:	90                   	nop
  101fef:	5d                   	pop    %ebp
  101ff0:	c3                   	ret    

00101ff1 <GetCurrentCounter>:
  101ff1:	55                   	push   %ebp
  101ff2:	89 e5                	mov    %esp,%ebp
  101ff4:	a1 d8 1e 14 00       	mov    0x141ed8,%eax
  101ff9:	5d                   	pop    %ebp
  101ffa:	c3                   	ret    

00101ffb <fat_list_init>:
  101ffb:	55                   	push   %ebp
  101ffc:	89 e5                	mov    %esp,%ebp
  101ffe:	8b 45 08             	mov    0x8(%ebp),%eax
  102001:	c7 40 04 00 00 00 00 	movl   $0x0,0x4(%eax)
  102008:	8b 45 08             	mov    0x8(%ebp),%eax
  10200b:	8b 50 04             	mov    0x4(%eax),%edx
  10200e:	8b 45 08             	mov    0x8(%ebp),%eax
  102011:	89 10                	mov    %edx,(%eax)
  102013:	90                   	nop
  102014:	5d                   	pop    %ebp
  102015:	c3                   	ret    

00102016 <fat_list_remove>:
  102016:	55                   	push   %ebp
  102017:	89 e5                	mov    %esp,%ebp
  102019:	8b 45 0c             	mov    0xc(%ebp),%eax
  10201c:	8b 00                	mov    (%eax),%eax
  10201e:	85 c0                	test   %eax,%eax
  102020:	75 0d                	jne    10202f <fat_list_remove+0x19>
  102022:	8b 45 0c             	mov    0xc(%ebp),%eax
  102025:	8b 50 04             	mov    0x4(%eax),%edx
  102028:	8b 45 08             	mov    0x8(%ebp),%eax
  10202b:	89 10                	mov    %edx,(%eax)
  10202d:	eb 0e                	jmp    10203d <fat_list_remove+0x27>
  10202f:	8b 45 0c             	mov    0xc(%ebp),%eax
  102032:	8b 00                	mov    (%eax),%eax
  102034:	8b 55 0c             	mov    0xc(%ebp),%edx
  102037:	8b 52 04             	mov    0x4(%edx),%edx
  10203a:	89 50 04             	mov    %edx,0x4(%eax)
  10203d:	8b 45 0c             	mov    0xc(%ebp),%eax
  102040:	8b 40 04             	mov    0x4(%eax),%eax
  102043:	85 c0                	test   %eax,%eax
  102045:	75 0d                	jne    102054 <fat_list_remove+0x3e>
  102047:	8b 45 0c             	mov    0xc(%ebp),%eax
  10204a:	8b 10                	mov    (%eax),%edx
  10204c:	8b 45 08             	mov    0x8(%ebp),%eax
  10204f:	89 50 04             	mov    %edx,0x4(%eax)
  102052:	eb 0d                	jmp    102061 <fat_list_remove+0x4b>
  102054:	8b 45 0c             	mov    0xc(%ebp),%eax
  102057:	8b 40 04             	mov    0x4(%eax),%eax
  10205a:	8b 55 0c             	mov    0xc(%ebp),%edx
  10205d:	8b 12                	mov    (%edx),%edx
  10205f:	89 10                	mov    %edx,(%eax)
  102061:	90                   	nop
  102062:	5d                   	pop    %ebp
  102063:	c3                   	ret    

00102064 <fat_list_insert_after>:
  102064:	55                   	push   %ebp
  102065:	89 e5                	mov    %esp,%ebp
  102067:	8b 45 10             	mov    0x10(%ebp),%eax
  10206a:	8b 55 0c             	mov    0xc(%ebp),%edx
  10206d:	89 10                	mov    %edx,(%eax)
  10206f:	8b 45 0c             	mov    0xc(%ebp),%eax
  102072:	8b 50 04             	mov    0x4(%eax),%edx
  102075:	8b 45 10             	mov    0x10(%ebp),%eax
  102078:	89 50 04             	mov    %edx,0x4(%eax)
  10207b:	8b 45 0c             	mov    0xc(%ebp),%eax
  10207e:	8b 40 04             	mov    0x4(%eax),%eax
  102081:	85 c0                	test   %eax,%eax
  102083:	75 0b                	jne    102090 <fat_list_insert_after+0x2c>
  102085:	8b 45 08             	mov    0x8(%ebp),%eax
  102088:	8b 55 10             	mov    0x10(%ebp),%edx
  10208b:	89 50 04             	mov    %edx,0x4(%eax)
  10208e:	eb 0b                	jmp    10209b <fat_list_insert_after+0x37>
  102090:	8b 45 0c             	mov    0xc(%ebp),%eax
  102093:	8b 40 04             	mov    0x4(%eax),%eax
  102096:	8b 55 10             	mov    0x10(%ebp),%edx
  102099:	89 10                	mov    %edx,(%eax)
  10209b:	8b 45 0c             	mov    0xc(%ebp),%eax
  10209e:	8b 55 10             	mov    0x10(%ebp),%edx
  1020a1:	89 50 04             	mov    %edx,0x4(%eax)
  1020a4:	90                   	nop
  1020a5:	5d                   	pop    %ebp
  1020a6:	c3                   	ret    

001020a7 <fat_list_insert_before>:
  1020a7:	55                   	push   %ebp
  1020a8:	89 e5                	mov    %esp,%ebp
  1020aa:	8b 45 0c             	mov    0xc(%ebp),%eax
  1020ad:	8b 10                	mov    (%eax),%edx
  1020af:	8b 45 10             	mov    0x10(%ebp),%eax
  1020b2:	89 10                	mov    %edx,(%eax)
  1020b4:	8b 45 10             	mov    0x10(%ebp),%eax
  1020b7:	8b 55 0c             	mov    0xc(%ebp),%edx
  1020ba:	89 50 04             	mov    %edx,0x4(%eax)
  1020bd:	8b 45 0c             	mov    0xc(%ebp),%eax
  1020c0:	8b 00                	mov    (%eax),%eax
  1020c2:	85 c0                	test   %eax,%eax
  1020c4:	75 0a                	jne    1020d0 <fat_list_insert_before+0x29>
  1020c6:	8b 45 08             	mov    0x8(%ebp),%eax
  1020c9:	8b 55 10             	mov    0x10(%ebp),%edx
  1020cc:	89 10                	mov    %edx,(%eax)
  1020ce:	eb 0b                	jmp    1020db <fat_list_insert_before+0x34>
  1020d0:	8b 45 0c             	mov    0xc(%ebp),%eax
  1020d3:	8b 00                	mov    (%eax),%eax
  1020d5:	8b 55 10             	mov    0x10(%ebp),%edx
  1020d8:	89 50 04             	mov    %edx,0x4(%eax)
  1020db:	8b 45 0c             	mov    0xc(%ebp),%eax
  1020de:	8b 55 10             	mov    0x10(%ebp),%edx
  1020e1:	89 10                	mov    %edx,(%eax)
  1020e3:	90                   	nop
  1020e4:	5d                   	pop    %ebp
  1020e5:	c3                   	ret    

001020e6 <fat_list_insert_first>:
  1020e6:	55                   	push   %ebp
  1020e7:	89 e5                	mov    %esp,%ebp
  1020e9:	8b 45 08             	mov    0x8(%ebp),%eax
  1020ec:	8b 00                	mov    (%eax),%eax
  1020ee:	85 c0                	test   %eax,%eax
  1020f0:	75 26                	jne    102118 <fat_list_insert_first+0x32>
  1020f2:	8b 45 08             	mov    0x8(%ebp),%eax
  1020f5:	8b 55 0c             	mov    0xc(%ebp),%edx
  1020f8:	89 10                	mov    %edx,(%eax)
  1020fa:	8b 45 08             	mov    0x8(%ebp),%eax
  1020fd:	8b 55 0c             	mov    0xc(%ebp),%edx
  102100:	89 50 04             	mov    %edx,0x4(%eax)
  102103:	8b 45 0c             	mov    0xc(%ebp),%eax
  102106:	c7 00 00 00 00 00    	movl   $0x0,(%eax)
  10210c:	8b 45 0c             	mov    0xc(%ebp),%eax
  10210f:	c7 40 04 00 00 00 00 	movl   $0x0,0x4(%eax)
  102116:	eb 14                	jmp    10212c <fat_list_insert_first+0x46>
  102118:	8b 45 08             	mov    0x8(%ebp),%eax
  10211b:	8b 00                	mov    (%eax),%eax
  10211d:	ff 75 0c             	push   0xc(%ebp)
  102120:	50                   	push   %eax
  102121:	ff 75 08             	push   0x8(%ebp)
  102124:	e8 7e ff ff ff       	call   1020a7 <fat_list_insert_before>
  102129:	83 c4 0c             	add    $0xc,%esp
  10212c:	90                   	nop
  10212d:	c9                   	leave  
  10212e:	c3                   	ret    

0010212f <fat_list_insert_last>:
  10212f:	55                   	push   %ebp
  102130:	89 e5                	mov    %esp,%ebp
  102132:	8b 45 08             	mov    0x8(%ebp),%eax
  102135:	8b 40 04             	mov    0x4(%eax),%eax
  102138:	85 c0                	test   %eax,%eax
  10213a:	75 10                	jne    10214c <fat_list_insert_last+0x1d>
  10213c:	ff 75 0c             	push   0xc(%ebp)
  10213f:	ff 75 08             	push   0x8(%ebp)
  102142:	e8 9f ff ff ff       	call   1020e6 <fat_list_insert_first>
  102147:	83 c4 08             	add    $0x8,%esp
  10214a:	eb 15                	jmp    102161 <fat_list_insert_last+0x32>
  10214c:	8b 45 08             	mov    0x8(%ebp),%eax
  10214f:	8b 40 04             	mov    0x4(%eax),%eax
  102152:	ff 75 0c             	push   0xc(%ebp)
  102155:	50                   	push   %eax
  102156:	ff 75 08             	push   0x8(%ebp)
  102159:	e8 06 ff ff ff       	call   102064 <fat_list_insert_after>
  10215e:	83 c4 0c             	add    $0xc,%esp
  102161:	90                   	nop
  102162:	c9                   	leave  
  102163:	c3                   	ret    

00102164 <fat_list_is_empty>:
  102164:	55                   	push   %ebp
  102165:	89 e5                	mov    %esp,%ebp
  102167:	8b 45 08             	mov    0x8(%ebp),%eax
  10216a:	8b 00                	mov    (%eax),%eax
  10216c:	85 c0                	test   %eax,%eax
  10216e:	0f 94 c0             	sete   %al
  102171:	0f b6 c0             	movzbl %al,%eax
  102174:	5d                   	pop    %ebp
  102175:	c3                   	ret    

00102176 <fat_list_pop_head>:
  102176:	55                   	push   %ebp
  102177:	89 e5                	mov    %esp,%ebp
  102179:	83 ec 10             	sub    $0x10,%esp
  10217c:	8b 45 08             	mov    0x8(%ebp),%eax
  10217f:	8b 00                	mov    (%eax),%eax
  102181:	89 45 fc             	mov    %eax,-0x4(%ebp)
  102184:	83 7d fc 00          	cmpl   $0x0,-0x4(%ebp)
  102188:	74 0e                	je     102198 <fat_list_pop_head+0x22>
  10218a:	ff 75 fc             	push   -0x4(%ebp)
  10218d:	ff 75 08             	push   0x8(%ebp)
  102190:	e8 81 fe ff ff       	call   102016 <fat_list_remove>
  102195:	83 c4 08             	add    $0x8,%esp
  102198:	8b 45 fc             	mov    -0x4(%ebp),%eax
  10219b:	c9                   	leave  
  10219c:	c3                   	ret    

0010219d <run_elf>:
  10219d:	55                   	push   %ebp
  10219e:	89 e5                	mov    %esp,%ebp
  1021a0:	83 ec 18             	sub    $0x18,%esp
  1021a3:	b8 f0 1e 14 00       	mov    $0x141ef0,%eax
  1021a8:	88 45 ef             	mov    %al,-0x11(%ebp)
  1021ab:	0f b6 45 ef          	movzbl -0x11(%ebp),%eax
  1021af:	0f b6 c0             	movzbl %al,%eax
  1021b2:	83 ec 04             	sub    $0x4,%esp
  1021b5:	68 00 20 00 00       	push   $0x2000
  1021ba:	6a 00                	push   $0x0
  1021bc:	50                   	push   %eax
  1021bd:	e8 fc e9 01 00       	call   120bbe <memset>
  1021c2:	83 c4 10             	add    $0x10,%esp
  1021c5:	8d 45 ef             	lea    -0x11(%ebp),%eax
  1021c8:	89 c4                	mov    %eax,%esp
  1021ca:	8b 45 08             	mov    0x8(%ebp),%eax
  1021cd:	89 45 f4             	mov    %eax,-0xc(%ebp)
  1021d0:	83 ec 08             	sub    $0x8,%esp
  1021d3:	ff 75 18             	push   0x18(%ebp)
  1021d6:	ff 75 14             	push   0x14(%ebp)
  1021d9:	8b 45 f4             	mov    -0xc(%ebp),%eax
  1021dc:	ff d0                	call   *%eax
  1021de:	83 c4 10             	add    $0x10,%esp
  1021e1:	c7 45 f0 00 00 00 00 	movl   $0x0,-0x10(%ebp)
  1021e8:	89 c0                	mov    %eax,%eax
  1021ea:	89 45 f0             	mov    %eax,-0x10(%ebp)
  1021ed:	8d 45 ef             	lea    -0x11(%ebp),%eax
  1021f0:	89 c4                	mov    %eax,%esp
  1021f2:	90                   	nop
  1021f3:	c9                   	leave  
  1021f4:	c3                   	ret    

001021f5 <check_overlap>:
  1021f5:	55                   	push   %ebp
  1021f6:	89 e5                	mov    %esp,%ebp
  1021f8:	83 ec 10             	sub    $0x10,%esp
  1021fb:	8b 45 10             	mov    0x10(%ebp),%eax
  1021fe:	89 45 fc             	mov    %eax,-0x4(%ebp)
  102201:	8b 45 10             	mov    0x10(%ebp),%eax
  102204:	0f b7 40 28          	movzwl 0x28(%eax),%eax
  102208:	0f b7 d0             	movzwl %ax,%edx
  10220b:	8b 45 fc             	mov    -0x4(%ebp),%eax
  10220e:	01 d0                	add    %edx,%eax
  102210:	89 45 f8             	mov    %eax,-0x8(%ebp)
  102213:	8b 45 f8             	mov    -0x8(%ebp),%eax
  102216:	3b 45 08             	cmp    0x8(%ebp),%eax
  102219:	72 08                	jb     102223 <check_overlap+0x2e>
  10221b:	8b 45 fc             	mov    -0x4(%ebp),%eax
  10221e:	3b 45 0c             	cmp    0xc(%ebp),%eax
  102221:	76 07                	jbe    10222a <check_overlap+0x35>
  102223:	b8 00 00 00 00       	mov    $0x0,%eax
  102228:	eb 05                	jmp    10222f <check_overlap+0x3a>
  10222a:	b8 01 00 00 00       	mov    $0x1,%eax
  10222f:	c9                   	leave  
  102230:	c3                   	ret    

00102231 <save_register_state>:
  102231:	55                   	push   %ebp
  102232:	89 e5                	mov    %esp,%ebp
  102234:	89 e9                	mov    %ebp,%ecx
  102236:	89 e2                	mov    %esp,%edx
  102238:	8b 45 08             	mov    0x8(%ebp),%eax
  10223b:	89 08                	mov    %ecx,(%eax)
  10223d:	8b 45 08             	mov    0x8(%ebp),%eax
  102240:	89 50 04             	mov    %edx,0x4(%eax)
  102243:	90                   	nop
  102244:	5d                   	pop    %ebp
  102245:	c3                   	ret    

00102246 <restore_register_state>:
  102246:	55                   	push   %ebp
  102247:	89 e5                	mov    %esp,%ebp
  102249:	8b 45 08             	mov    0x8(%ebp),%eax
  10224c:	8b 00                	mov    (%eax),%eax
  10224e:	8b 55 08             	mov    0x8(%ebp),%edx
  102251:	8b 52 04             	mov    0x4(%edx),%edx
  102254:	89 c5                	mov    %eax,%ebp
  102256:	89 d4                	mov    %edx,%esp
  102258:	90                   	nop
  102259:	5d                   	pop    %ebp
  10225a:	c3                   	ret    

0010225b <is_kernel_memory_overlap>:
  10225b:	55                   	push   %ebp
  10225c:	89 e5                	mov    %esp,%ebp
  10225e:	83 ec 20             	sub    $0x20,%esp
  102261:	8b 45 08             	mov    0x8(%ebp),%eax
  102264:	8b 40 08             	mov    0x8(%eax),%eax
  102267:	89 45 fc             	mov    %eax,-0x4(%ebp)
  10226a:	8b 45 08             	mov    0x8(%ebp),%eax
  10226d:	8b 50 14             	mov    0x14(%eax),%edx
  102270:	8b 45 fc             	mov    -0x4(%ebp),%eax
  102273:	01 d0                	add    %edx,%eax
  102275:	89 45 f8             	mov    %eax,-0x8(%ebp)
  102278:	b8 b0 c3 16 00       	mov    $0x16c3b0,%eax
  10227d:	05 00 90 00 00       	add    $0x9000,%eax
  102282:	89 45 f4             	mov    %eax,-0xc(%ebp)
  102285:	c7 45 f0 00 00 00 00 	movl   $0x0,-0x10(%ebp)
  10228c:	c7 45 ec b0 c3 16 00 	movl   $0x16c3b0,-0x14(%ebp)
  102293:	8b 45 ec             	mov    -0x14(%ebp),%eax
  102296:	39 45 fc             	cmp    %eax,-0x4(%ebp)
  102299:	73 0f                	jae    1022aa <is_kernel_memory_overlap+0x4f>
  10229b:	8b 45 f0             	mov    -0x10(%ebp),%eax
  10229e:	39 45 f8             	cmp    %eax,-0x8(%ebp)
  1022a1:	76 07                	jbe    1022aa <is_kernel_memory_overlap+0x4f>
  1022a3:	b8 01 00 00 00       	mov    $0x1,%eax
  1022a8:	eb 05                	jmp    1022af <is_kernel_memory_overlap+0x54>
  1022aa:	b8 00 00 00 00       	mov    $0x0,%eax
  1022af:	c9                   	leave  
  1022b0:	c3                   	ret    

001022b1 <switch_to_user_mode>:
  1022b1:	55                   	push   %ebp
  1022b2:	89 e5                	mov    %esp,%ebp
  1022b4:	89 e2                	mov    %esp,%edx
  1022b6:	8b 45 0c             	mov    0xc(%ebp),%eax
  1022b9:	89 10                	mov    %edx,(%eax)
  1022bb:	8b 45 08             	mov    0x8(%ebp),%eax
  1022be:	8b 00                	mov    (%eax),%eax
  1022c0:	8b 55 08             	mov    0x8(%ebp),%edx
  1022c3:	8b 52 04             	mov    0x4(%edx),%edx
  1022c6:	89 c4                	mov    %eax,%esp
  1022c8:	ff d2                	call   *%edx
  1022ca:	8b 45 0c             	mov    0xc(%ebp),%eax
  1022cd:	8b 00                	mov    (%eax),%eax
  1022cf:	89 c4                	mov    %eax,%esp
  1022d1:	90                   	nop
  1022d2:	5d                   	pop    %ebp
  1022d3:	c3                   	ret    

001022d4 <load_elf_executable>:
  1022d4:	55                   	push   %ebp
  1022d5:	89 e5                	mov    %esp,%ebp
  1022d7:	83 ec 48             	sub    $0x48,%esp
  1022da:	8b 45 08             	mov    0x8(%ebp),%eax
  1022dd:	89 45 d8             	mov    %eax,-0x28(%ebp)
  1022e0:	68 a0 23 12 00       	push   $0x1223a0
  1022e5:	68 e4 00 00 00       	push   $0xe4
  1022ea:	68 74 23 12 00       	push   $0x122374
  1022ef:	68 89 23 12 00       	push   $0x122389
  1022f4:	e8 3a e9 ff ff       	call   100c33 <printf_com>
  1022f9:	83 c4 10             	add    $0x10,%esp
  1022fc:	8b 45 d8             	mov    -0x28(%ebp),%eax
  1022ff:	83 ec 04             	sub    $0x4,%esp
  102302:	6a 04                	push   $0x4
  102304:	68 96 23 12 00       	push   $0x122396
  102309:	50                   	push   %eax
  10230a:	e8 2c eb 01 00       	call   120e3b <memcmp>
  10230f:	83 c4 10             	add    $0x10,%esp
  102312:	85 c0                	test   %eax,%eax
  102314:	0f 85 d4 03 00 00    	jne    1026ee <load_elf_executable+0x41a>
  10231a:	68 a0 23 12 00       	push   $0x1223a0
  10231f:	68 e8 00 00 00       	push   $0xe8
  102324:	68 74 23 12 00       	push   $0x122374
  102329:	68 89 23 12 00       	push   $0x122389
  10232e:	e8 00 e9 ff ff       	call   100c33 <printf_com>
  102333:	83 c4 10             	add    $0x10,%esp
  102336:	c7 45 f4 00 00 00 00 	movl   $0x0,-0xc(%ebp)
  10233d:	e9 f0 01 00 00       	jmp    102532 <load_elf_executable+0x25e>
  102342:	8b 45 d8             	mov    -0x28(%ebp),%eax
  102345:	8b 50 1c             	mov    0x1c(%eax),%edx
  102348:	8b 45 d8             	mov    -0x28(%ebp),%eax
  10234b:	0f b7 40 2a          	movzwl 0x2a(%eax),%eax
  10234f:	0f b7 c0             	movzwl %ax,%eax
  102352:	0f af 45 f4          	imul   -0xc(%ebp),%eax
  102356:	01 c2                	add    %eax,%edx
  102358:	8b 45 08             	mov    0x8(%ebp),%eax
  10235b:	01 d0                	add    %edx,%eax
  10235d:	89 45 d4             	mov    %eax,-0x2c(%ebp)
  102360:	68 a0 23 12 00       	push   $0x1223a0
  102365:	68 ec 00 00 00       	push   $0xec
  10236a:	68 74 23 12 00       	push   $0x122374
  10236f:	68 89 23 12 00       	push   $0x122389
  102374:	e8 ba e8 ff ff       	call   100c33 <printf_com>
  102379:	83 c4 10             	add    $0x10,%esp
  10237c:	8b 45 d4             	mov    -0x2c(%ebp),%eax
  10237f:	8b 00                	mov    (%eax),%eax
  102381:	83 f8 01             	cmp    $0x1,%eax
  102384:	0f 85 88 01 00 00    	jne    102512 <load_elf_executable+0x23e>
  10238a:	8b 45 d4             	mov    -0x2c(%ebp),%eax
  10238d:	8b 40 10             	mov    0x10(%eax),%eax
  102390:	83 ec 0c             	sub    $0xc,%esp
  102393:	50                   	push   %eax
  102394:	e8 17 2f 00 00       	call   1052b0 <kmalloc>
  102399:	83 c4 10             	add    $0x10,%esp
  10239c:	89 45 f0             	mov    %eax,-0x10(%ebp)
  10239f:	83 7d f0 00          	cmpl   $0x0,-0x10(%ebp)
  1023a3:	0f 84 48 03 00 00    	je     1026f1 <load_elf_executable+0x41d>
  1023a9:	68 a0 23 12 00       	push   $0x1223a0
  1023ae:	68 f2 00 00 00       	push   $0xf2
  1023b3:	68 74 23 12 00       	push   $0x122374
  1023b8:	68 89 23 12 00       	push   $0x122389
  1023bd:	e8 71 e8 ff ff       	call   100c33 <printf_com>
  1023c2:	83 c4 10             	add    $0x10,%esp
  1023c5:	a1 1c a0 12 00       	mov    0x12a01c,%eax
  1023ca:	8b 55 f0             	mov    -0x10(%ebp),%edx
  1023cd:	89 14 85 a0 44 14 00 	mov    %edx,0x1444a0(,%eax,4)
  1023d4:	a1 1c a0 12 00       	mov    0x12a01c,%eax
  1023d9:	83 c0 01             	add    $0x1,%eax
  1023dc:	a3 1c a0 12 00       	mov    %eax,0x12a01c
  1023e1:	8b 45 d4             	mov    -0x2c(%ebp),%eax
  1023e4:	8b 40 14             	mov    0x14(%eax),%eax
  1023e7:	c1 e8 0c             	shr    $0xc,%eax
  1023ea:	89 45 ec             	mov    %eax,-0x14(%ebp)
  1023ed:	8b 45 d4             	mov    -0x2c(%ebp),%eax
  1023f0:	8b 40 14             	mov    0x14(%eax),%eax
  1023f3:	25 ff 0f 00 00       	and    $0xfff,%eax
  1023f8:	85 c0                	test   %eax,%eax
  1023fa:	74 04                	je     102400 <load_elf_executable+0x12c>
  1023fc:	83 45 ec 01          	addl   $0x1,-0x14(%ebp)
  102400:	68 a0 23 12 00       	push   $0x1223a0
  102405:	68 f9 00 00 00       	push   $0xf9
  10240a:	68 74 23 12 00       	push   $0x122374
  10240f:	68 89 23 12 00       	push   $0x122389
  102414:	e8 1a e8 ff ff       	call   100c33 <printf_com>
  102419:	83 c4 10             	add    $0x10,%esp
  10241c:	8b 45 d4             	mov    -0x2c(%ebp),%eax
  10241f:	8b 40 08             	mov    0x8(%eax),%eax
  102422:	89 45 e8             	mov    %eax,-0x18(%ebp)
  102425:	8b 45 d4             	mov    -0x2c(%ebp),%eax
  102428:	8b 50 08             	mov    0x8(%eax),%edx
  10242b:	8b 45 d4             	mov    -0x2c(%ebp),%eax
  10242e:	8b 40 1c             	mov    0x1c(%eax),%eax
  102431:	83 e8 01             	sub    $0x1,%eax
  102434:	21 d0                	and    %edx,%eax
  102436:	89 45 d0             	mov    %eax,-0x30(%ebp)
  102439:	c7 45 e4 00 00 00 00 	movl   $0x0,-0x1c(%ebp)
  102440:	eb 40                	jmp    102482 <load_elf_executable+0x1ae>
  102442:	8b 45 f0             	mov    -0x10(%ebp),%eax
  102445:	83 ec 04             	sub    $0x4,%esp
  102448:	6a 03                	push   $0x3
  10244a:	50                   	push   %eax
  10244b:	ff 75 e8             	push   -0x18(%ebp)
  10244e:	e8 01 39 00 00       	call   105d54 <map>
  102453:	83 c4 10             	add    $0x10,%esp
  102456:	8b 45 e4             	mov    -0x1c(%ebp),%eax
  102459:	8b 55 e8             	mov    -0x18(%ebp),%edx
  10245c:	89 14 85 a0 44 14 00 	mov    %edx,0x1444a0(,%eax,4)
  102463:	a1 18 a0 12 00       	mov    0x12a018,%eax
  102468:	83 c0 01             	add    $0x1,%eax
  10246b:	a3 18 a0 12 00       	mov    %eax,0x12a018
  102470:	81 45 e8 00 10 00 00 	addl   $0x1000,-0x18(%ebp)
  102477:	81 45 f0 00 40 00 00 	addl   $0x4000,-0x10(%ebp)
  10247e:	83 45 e4 01          	addl   $0x1,-0x1c(%ebp)
  102482:	8b 45 e4             	mov    -0x1c(%ebp),%eax
  102485:	3b 45 ec             	cmp    -0x14(%ebp),%eax
  102488:	72 b8                	jb     102442 <load_elf_executable+0x16e>
  10248a:	68 a0 23 12 00       	push   $0x1223a0
  10248f:	68 06 01 00 00       	push   $0x106
  102494:	68 74 23 12 00       	push   $0x122374
  102499:	68 89 23 12 00       	push   $0x122389
  10249e:	e8 90 e7 ff ff       	call   100c33 <printf_com>
  1024a3:	83 c4 10             	add    $0x10,%esp
  1024a6:	8b 45 d4             	mov    -0x2c(%ebp),%eax
  1024a9:	8b 40 10             	mov    0x10(%eax),%eax
  1024ac:	8b 55 d4             	mov    -0x2c(%ebp),%edx
  1024af:	8b 4a 04             	mov    0x4(%edx),%ecx
  1024b2:	8b 55 08             	mov    0x8(%ebp),%edx
  1024b5:	01 d1                	add    %edx,%ecx
  1024b7:	8b 55 d4             	mov    -0x2c(%ebp),%edx
  1024ba:	8b 52 08             	mov    0x8(%edx),%edx
  1024bd:	83 ec 04             	sub    $0x4,%esp
  1024c0:	50                   	push   %eax
  1024c1:	51                   	push   %ecx
  1024c2:	52                   	push   %edx
  1024c3:	e8 a2 e8 01 00       	call   120d6a <memcpy>
  1024c8:	83 c4 10             	add    $0x10,%esp
  1024cb:	8b 45 d4             	mov    -0x2c(%ebp),%eax
  1024ce:	8b 50 14             	mov    0x14(%eax),%edx
  1024d1:	8b 45 d4             	mov    -0x2c(%ebp),%eax
  1024d4:	8b 40 10             	mov    0x10(%eax),%eax
  1024d7:	29 c2                	sub    %eax,%edx
  1024d9:	8b 45 d4             	mov    -0x2c(%ebp),%eax
  1024dc:	8b 48 10             	mov    0x10(%eax),%ecx
  1024df:	8b 45 d4             	mov    -0x2c(%ebp),%eax
  1024e2:	8b 40 08             	mov    0x8(%eax),%eax
  1024e5:	01 c8                	add    %ecx,%eax
  1024e7:	83 ec 04             	sub    $0x4,%esp
  1024ea:	52                   	push   %edx
  1024eb:	6a 00                	push   $0x0
  1024ed:	50                   	push   %eax
  1024ee:	e8 cb e6 01 00       	call   120bbe <memset>
  1024f3:	83 c4 10             	add    $0x10,%esp
  1024f6:	68 a0 23 12 00       	push   $0x1223a0
  1024fb:	68 09 01 00 00       	push   $0x109
  102500:	68 74 23 12 00       	push   $0x122374
  102505:	68 89 23 12 00       	push   $0x122389
  10250a:	e8 24 e7 ff ff       	call   100c33 <printf_com>
  10250f:	83 c4 10             	add    $0x10,%esp
  102512:	68 a0 23 12 00       	push   $0x1223a0
  102517:	68 0b 01 00 00       	push   $0x10b
  10251c:	68 74 23 12 00       	push   $0x122374
  102521:	68 89 23 12 00       	push   $0x122389
  102526:	e8 08 e7 ff ff       	call   100c33 <printf_com>
  10252b:	83 c4 10             	add    $0x10,%esp
  10252e:	83 45 f4 01          	addl   $0x1,-0xc(%ebp)
  102532:	8b 45 d8             	mov    -0x28(%ebp),%eax
  102535:	0f b7 40 2c          	movzwl 0x2c(%eax),%eax
  102539:	0f b7 c0             	movzwl %ax,%eax
  10253c:	39 45 f4             	cmp    %eax,-0xc(%ebp)
  10253f:	0f 8c fd fd ff ff    	jl     102342 <load_elf_executable+0x6e>
  102545:	68 a0 23 12 00       	push   $0x1223a0
  10254a:	68 0e 01 00 00       	push   $0x10e
  10254f:	68 74 23 12 00       	push   $0x122374
  102554:	68 89 23 12 00       	push   $0x122389
  102559:	e8 d5 e6 ff ff       	call   100c33 <printf_com>
  10255e:	83 c4 10             	add    $0x10,%esp
  102561:	8b 45 d8             	mov    -0x28(%ebp),%eax
  102564:	8b 40 18             	mov    0x18(%eax),%eax
  102567:	89 45 c0             	mov    %eax,-0x40(%ebp)
  10256a:	c7 45 bc f0 1e 14 00 	movl   $0x141ef0,-0x44(%ebp)
  102571:	8b 45 bc             	mov    -0x44(%ebp),%eax
  102574:	83 ec 04             	sub    $0x4,%esp
  102577:	68 00 20 00 00       	push   $0x2000
  10257c:	6a 00                	push   $0x0
  10257e:	50                   	push   %eax
  10257f:	e8 3a e6 01 00       	call   120bbe <memset>
  102584:	83 c4 10             	add    $0x10,%esp
  102587:	68 a0 23 12 00       	push   $0x1223a0
  10258c:	68 16 01 00 00       	push   $0x116
  102591:	68 74 23 12 00       	push   $0x122374
  102596:	68 89 23 12 00       	push   $0x122389
  10259b:	e8 93 e6 ff ff       	call   100c33 <printf_com>
  1025a0:	83 c4 10             	add    $0x10,%esp
  1025a3:	8d 45 bc             	lea    -0x44(%ebp),%eax
  1025a6:	89 c4                	mov    %eax,%esp
  1025a8:	68 a0 23 12 00       	push   $0x1223a0
  1025ad:	68 1d 01 00 00       	push   $0x11d
  1025b2:	68 74 23 12 00       	push   $0x122374
  1025b7:	68 89 23 12 00       	push   $0x122389
  1025bc:	e8 72 e6 ff ff       	call   100c33 <printf_com>
  1025c1:	83 c4 10             	add    $0x10,%esp
  1025c4:	8b 45 d8             	mov    -0x28(%ebp),%eax
  1025c7:	8b 40 18             	mov    0x18(%eax),%eax
  1025ca:	89 45 cc             	mov    %eax,-0x34(%ebp)
  1025cd:	83 ec 08             	sub    $0x8,%esp
  1025d0:	ff 75 10             	push   0x10(%ebp)
  1025d3:	ff 75 0c             	push   0xc(%ebp)
  1025d6:	8b 45 cc             	mov    -0x34(%ebp),%eax
  1025d9:	ff d0                	call   *%eax
  1025db:	83 c4 10             	add    $0x10,%esp
  1025de:	8d 45 bc             	lea    -0x44(%ebp),%eax
  1025e1:	89 c4                	mov    %eax,%esp
  1025e3:	68 a0 23 12 00       	push   $0x1223a0
  1025e8:	68 29 01 00 00       	push   $0x129
  1025ed:	68 74 23 12 00       	push   $0x122374
  1025f2:	68 89 23 12 00       	push   $0x122389
  1025f7:	e8 37 e6 ff ff       	call   100c33 <printf_com>
  1025fc:	83 c4 10             	add    $0x10,%esp
  1025ff:	c7 45 e0 00 00 00 00 	movl   $0x0,-0x20(%ebp)
  102606:	eb 52                	jmp    10265a <load_elf_executable+0x386>
  102608:	68 a0 23 12 00       	push   $0x1223a0
  10260d:	68 2c 01 00 00       	push   $0x12c
  102612:	68 74 23 12 00       	push   $0x122374
  102617:	68 89 23 12 00       	push   $0x122389
  10261c:	e8 12 e6 ff ff       	call   100c33 <printf_com>
  102621:	83 c4 10             	add    $0x10,%esp
  102624:	8b 45 e0             	mov    -0x20(%ebp),%eax
  102627:	8b 04 85 a0 44 14 00 	mov    0x1444a0(,%eax,4),%eax
  10262e:	85 c0                	test   %eax,%eax
  102630:	74 24                	je     102656 <load_elf_executable+0x382>
  102632:	8b 45 e0             	mov    -0x20(%ebp),%eax
  102635:	8b 04 85 a0 44 14 00 	mov    0x1444a0(,%eax,4),%eax
  10263c:	83 ec 0c             	sub    $0xc,%esp
  10263f:	50                   	push   %eax
  102640:	e8 f0 37 00 00       	call   105e35 <unmap>
  102645:	83 c4 10             	add    $0x10,%esp
  102648:	8b 45 e0             	mov    -0x20(%ebp),%eax
  10264b:	c7 04 85 a0 44 14 00 	movl   $0x0,0x1444a0(,%eax,4)
  102652:	00 00 00 00 
  102656:	83 45 e0 01          	addl   $0x1,-0x20(%ebp)
  10265a:	a1 18 a0 12 00       	mov    0x12a018,%eax
  10265f:	39 45 e0             	cmp    %eax,-0x20(%ebp)
  102662:	72 a4                	jb     102608 <load_elf_executable+0x334>
  102664:	c7 05 18 a0 12 00 00 	movl   $0x0,0x12a018
  10266b:	00 00 00 
  10266e:	c7 45 dc 00 00 00 00 	movl   $0x0,-0x24(%ebp)
  102675:	eb 44                	jmp    1026bb <load_elf_executable+0x3e7>
  102677:	68 a0 23 12 00       	push   $0x1223a0
  10267c:	68 37 01 00 00       	push   $0x137
  102681:	68 74 23 12 00       	push   $0x122374
  102686:	68 89 23 12 00       	push   $0x122389
  10268b:	e8 a3 e5 ff ff       	call   100c33 <printf_com>
  102690:	83 c4 10             	add    $0x10,%esp
  102693:	8b 45 dc             	mov    -0x24(%ebp),%eax
  102696:	8b 04 85 00 3f 14 00 	mov    0x143f00(,%eax,4),%eax
  10269d:	83 ec 0c             	sub    $0xc,%esp
  1026a0:	50                   	push   %eax
  1026a1:	e8 5e 2c 00 00       	call   105304 <kfree>
  1026a6:	83 c4 10             	add    $0x10,%esp
  1026a9:	8b 45 dc             	mov    -0x24(%ebp),%eax
  1026ac:	c7 04 85 00 3f 14 00 	movl   $0x0,0x143f00(,%eax,4)
  1026b3:	00 00 00 00 
  1026b7:	83 45 dc 01          	addl   $0x1,-0x24(%ebp)
  1026bb:	a1 1c a0 12 00       	mov    0x12a01c,%eax
  1026c0:	39 45 dc             	cmp    %eax,-0x24(%ebp)
  1026c3:	72 b2                	jb     102677 <load_elf_executable+0x3a3>
  1026c5:	c7 05 1c a0 12 00 00 	movl   $0x0,0x12a01c
  1026cc:	00 00 00 
  1026cf:	68 a0 23 12 00       	push   $0x1223a0
  1026d4:	68 3c 01 00 00       	push   $0x13c
  1026d9:	68 74 23 12 00       	push   $0x122374
  1026de:	68 89 23 12 00       	push   $0x122389
  1026e3:	e8 4b e5 ff ff       	call   100c33 <printf_com>
  1026e8:	83 c4 10             	add    $0x10,%esp
  1026eb:	90                   	nop
  1026ec:	eb 04                	jmp    1026f2 <load_elf_executable+0x41e>
  1026ee:	90                   	nop
  1026ef:	eb 01                	jmp    1026f2 <load_elf_executable+0x41e>
  1026f1:	90                   	nop
  1026f2:	c9                   	leave  
  1026f3:	c3                   	ret    

001026f4 <exit_elf>:
  1026f4:	55                   	push   %ebp
  1026f5:	89 e5                	mov    %esp,%ebp
  1026f7:	8b 45 08             	mov    0x8(%ebp),%eax
  1026fa:	8b 00                	mov    (%eax),%eax
  1026fc:	89 c4                	mov    %eax,%esp
  1026fe:	90                   	nop
  1026ff:	5d                   	pop    %ebp
  102700:	c3                   	ret    

00102701 <load_elf_file>:
  102701:	55                   	push   %ebp
  102702:	89 e5                	mov    %esp,%ebp
  102704:	83 ec 18             	sub    $0x18,%esp
  102707:	83 ec 08             	sub    $0x8,%esp
  10270a:	68 9b 23 12 00       	push   $0x12239b
  10270f:	ff 75 08             	push   0x8(%ebp)
  102712:	e8 d5 45 01 00       	call   116cec <fl_fopen>
  102717:	83 c4 10             	add    $0x10,%esp
  10271a:	89 45 f4             	mov    %eax,-0xc(%ebp)
  10271d:	83 7d f4 00          	cmpl   $0x0,-0xc(%ebp)
  102721:	0f 84 da 00 00 00    	je     102801 <load_elf_file+0x100>
  102727:	83 ec 04             	sub    $0x4,%esp
  10272a:	6a 02                	push   $0x2
  10272c:	6a 00                	push   $0x0
  10272e:	ff 75 f4             	push   -0xc(%ebp)
  102731:	e8 0e 4e 01 00       	call   117544 <fl_fseek>
  102736:	83 c4 10             	add    $0x10,%esp
  102739:	83 ec 0c             	sub    $0xc,%esp
  10273c:	ff 75 f4             	push   -0xc(%ebp)
  10273f:	e8 9b 4f 01 00       	call   1176df <fl_ftell>
  102744:	83 c4 10             	add    $0x10,%esp
  102747:	89 45 f0             	mov    %eax,-0x10(%ebp)
  10274a:	83 ec 04             	sub    $0x4,%esp
  10274d:	6a 00                	push   $0x0
  10274f:	6a 00                	push   $0x0
  102751:	ff 75 f4             	push   -0xc(%ebp)
  102754:	e8 eb 4d 01 00       	call   117544 <fl_fseek>
  102759:	83 c4 10             	add    $0x10,%esp
  10275c:	8b 45 f0             	mov    -0x10(%ebp),%eax
  10275f:	83 ec 0c             	sub    $0xc,%esp
  102762:	50                   	push   %eax
  102763:	e8 48 2b 00 00       	call   1052b0 <kmalloc>
  102768:	83 c4 10             	add    $0x10,%esp
  10276b:	89 45 ec             	mov    %eax,-0x14(%ebp)
  10276e:	83 7d ec 00          	cmpl   $0x0,-0x14(%ebp)
  102772:	75 10                	jne    102784 <load_elf_file+0x83>
  102774:	83 ec 0c             	sub    $0xc,%esp
  102777:	ff 75 f4             	push   -0xc(%ebp)
  10277a:	e8 07 4a 01 00       	call   117186 <fl_fclose>
  10277f:	83 c4 10             	add    $0x10,%esp
  102782:	eb 7e                	jmp    102802 <load_elf_file+0x101>
  102784:	ff 75 f4             	push   -0xc(%ebp)
  102787:	ff 75 f0             	push   -0x10(%ebp)
  10278a:	6a 01                	push   $0x1
  10278c:	ff 75 ec             	push   -0x14(%ebp)
  10278f:	e8 91 4b 01 00       	call   117325 <fl_fread>
  102794:	83 c4 10             	add    $0x10,%esp
  102797:	83 ec 0c             	sub    $0xc,%esp
  10279a:	ff 75 f4             	push   -0xc(%ebp)
  10279d:	e8 e4 49 01 00       	call   117186 <fl_fclose>
  1027a2:	83 c4 10             	add    $0x10,%esp
  1027a5:	83 ec 04             	sub    $0x4,%esp
  1027a8:	ff 75 10             	push   0x10(%ebp)
  1027ab:	ff 75 0c             	push   0xc(%ebp)
  1027ae:	ff 75 ec             	push   -0x14(%ebp)
  1027b1:	e8 1e fb ff ff       	call   1022d4 <load_elf_executable>
  1027b6:	83 c4 10             	add    $0x10,%esp
  1027b9:	68 b4 23 12 00       	push   $0x1223b4
  1027be:	68 c2 01 00 00       	push   $0x1c2
  1027c3:	68 74 23 12 00       	push   $0x122374
  1027c8:	68 89 23 12 00       	push   $0x122389
  1027cd:	e8 61 e4 ff ff       	call   100c33 <printf_com>
  1027d2:	83 c4 10             	add    $0x10,%esp
  1027d5:	83 ec 0c             	sub    $0xc,%esp
  1027d8:	ff 75 ec             	push   -0x14(%ebp)
  1027db:	e8 24 2b 00 00       	call   105304 <kfree>
  1027e0:	83 c4 10             	add    $0x10,%esp
  1027e3:	68 b4 23 12 00       	push   $0x1223b4
  1027e8:	68 c9 01 00 00       	push   $0x1c9
  1027ed:	68 74 23 12 00       	push   $0x122374
  1027f2:	68 89 23 12 00       	push   $0x122389
  1027f7:	e8 37 e4 ff ff       	call   100c33 <printf_com>
  1027fc:	83 c4 10             	add    $0x10,%esp
  1027ff:	eb 01                	jmp    102802 <load_elf_file+0x101>
  102801:	90                   	nop
  102802:	c9                   	leave  
  102803:	c3                   	ret    

00102804 <execute_file>:
  102804:	55                   	push   %ebp
  102805:	89 e5                	mov    %esp,%ebp
  102807:	83 ec 08             	sub    $0x8,%esp
  10280a:	68 c4 23 12 00       	push   $0x1223c4
  10280f:	68 0c 02 00 00       	push   $0x20c
  102814:	68 74 23 12 00       	push   $0x122374
  102819:	68 89 23 12 00       	push   $0x122389
  10281e:	e8 10 e4 ff ff       	call   100c33 <printf_com>
  102823:	83 c4 10             	add    $0x10,%esp
  102826:	83 ec 08             	sub    $0x8,%esp
  102829:	ff 75 08             	push   0x8(%ebp)
  10282c:	68 a0 40 14 00       	push   $0x1440a0
  102831:	e8 ae e7 01 00       	call   120fe4 <strcpy>
  102836:	83 c4 10             	add    $0x10,%esp
  102839:	8b 45 0c             	mov    0xc(%ebp),%eax
  10283c:	a3 f0 3e 14 00       	mov    %eax,0x143ef0
  102841:	8b 45 10             	mov    0x10(%ebp),%eax
  102844:	a3 30 46 14 00       	mov    %eax,0x144630
  102849:	e8 03 00 00 00       	call   102851 <internal_run_exe>
  10284e:	90                   	nop
  10284f:	c9                   	leave  
  102850:	c3                   	ret    

00102851 <internal_run_exe>:
  102851:	55                   	push   %ebp
  102852:	89 e5                	mov    %esp,%ebp
  102854:	83 ec 08             	sub    $0x8,%esp
  102857:	68 d4 23 12 00       	push   $0x1223d4
  10285c:	68 19 02 00 00       	push   $0x219
  102861:	68 74 23 12 00       	push   $0x122374
  102866:	68 89 23 12 00       	push   $0x122389
  10286b:	e8 c3 e3 ff ff       	call   100c33 <printf_com>
  102870:	83 c4 10             	add    $0x10,%esp
  102873:	83 ec 0c             	sub    $0xc,%esp
  102876:	6a 7f                	push   $0x7f
  102878:	e8 05 aa 00 00       	call   10d282 <lock_kb_input>
  10287d:	83 c4 10             	add    $0x10,%esp
  102880:	68 d4 23 12 00       	push   $0x1223d4
  102885:	68 1b 02 00 00       	push   $0x21b
  10288a:	68 74 23 12 00       	push   $0x122374
  10288f:	68 89 23 12 00       	push   $0x122389
  102894:	e8 9a e3 ff ff       	call   100c33 <printf_com>
  102899:	83 c4 10             	add    $0x10,%esp
  10289c:	8b 15 30 46 14 00    	mov    0x144630,%edx
  1028a2:	a1 f0 3e 14 00       	mov    0x143ef0,%eax
  1028a7:	83 ec 04             	sub    $0x4,%esp
  1028aa:	52                   	push   %edx
  1028ab:	50                   	push   %eax
  1028ac:	68 a0 40 14 00       	push   $0x1440a0
  1028b1:	e8 4b fe ff ff       	call   102701 <load_elf_file>
  1028b6:	83 c4 10             	add    $0x10,%esp
  1028b9:	e8 d2 a9 00 00       	call   10d290 <unlock_kb_input>
  1028be:	c7 05 f0 3e 14 00 00 	movl   $0x0,0x143ef0
  1028c5:	00 00 00 
  1028c8:	68 d4 23 12 00       	push   $0x1223d4
  1028cd:	68 1f 02 00 00       	push   $0x21f
  1028d2:	68 74 23 12 00       	push   $0x122374
  1028d7:	68 89 23 12 00       	push   $0x122389
  1028dc:	e8 52 e3 ff ff       	call   100c33 <printf_com>
  1028e1:	83 c4 10             	add    $0x10,%esp
  1028e4:	90                   	nop
  1028e5:	c9                   	leave  
  1028e6:	c3                   	ret    

001028e7 <fat_list_init>:
  1028e7:	55                   	push   %ebp
  1028e8:	89 e5                	mov    %esp,%ebp
  1028ea:	8b 45 08             	mov    0x8(%ebp),%eax
  1028ed:	c7 40 04 00 00 00 00 	movl   $0x0,0x4(%eax)
  1028f4:	8b 45 08             	mov    0x8(%ebp),%eax
  1028f7:	8b 50 04             	mov    0x4(%eax),%edx
  1028fa:	8b 45 08             	mov    0x8(%ebp),%eax
  1028fd:	89 10                	mov    %edx,(%eax)
  1028ff:	90                   	nop
  102900:	5d                   	pop    %ebp
  102901:	c3                   	ret    

00102902 <fat_list_remove>:
  102902:	55                   	push   %ebp
  102903:	89 e5                	mov    %esp,%ebp
  102905:	8b 45 0c             	mov    0xc(%ebp),%eax
  102908:	8b 00                	mov    (%eax),%eax
  10290a:	85 c0                	test   %eax,%eax
  10290c:	75 0d                	jne    10291b <fat_list_remove+0x19>
  10290e:	8b 45 0c             	mov    0xc(%ebp),%eax
  102911:	8b 50 04             	mov    0x4(%eax),%edx
  102914:	8b 45 08             	mov    0x8(%ebp),%eax
  102917:	89 10                	mov    %edx,(%eax)
  102919:	eb 0e                	jmp    102929 <fat_list_remove+0x27>
  10291b:	8b 45 0c             	mov    0xc(%ebp),%eax
  10291e:	8b 00                	mov    (%eax),%eax
  102920:	8b 55 0c             	mov    0xc(%ebp),%edx
  102923:	8b 52 04             	mov    0x4(%edx),%edx
  102926:	89 50 04             	mov    %edx,0x4(%eax)
  102929:	8b 45 0c             	mov    0xc(%ebp),%eax
  10292c:	8b 40 04             	mov    0x4(%eax),%eax
  10292f:	85 c0                	test   %eax,%eax
  102931:	75 0d                	jne    102940 <fat_list_remove+0x3e>
  102933:	8b 45 0c             	mov    0xc(%ebp),%eax
  102936:	8b 10                	mov    (%eax),%edx
  102938:	8b 45 08             	mov    0x8(%ebp),%eax
  10293b:	89 50 04             	mov    %edx,0x4(%eax)
  10293e:	eb 0d                	jmp    10294d <fat_list_remove+0x4b>
  102940:	8b 45 0c             	mov    0xc(%ebp),%eax
  102943:	8b 40 04             	mov    0x4(%eax),%eax
  102946:	8b 55 0c             	mov    0xc(%ebp),%edx
  102949:	8b 12                	mov    (%edx),%edx
  10294b:	89 10                	mov    %edx,(%eax)
  10294d:	90                   	nop
  10294e:	5d                   	pop    %ebp
  10294f:	c3                   	ret    

00102950 <fat_list_insert_after>:
  102950:	55                   	push   %ebp
  102951:	89 e5                	mov    %esp,%ebp
  102953:	8b 45 10             	mov    0x10(%ebp),%eax
  102956:	8b 55 0c             	mov    0xc(%ebp),%edx
  102959:	89 10                	mov    %edx,(%eax)
  10295b:	8b 45 0c             	mov    0xc(%ebp),%eax
  10295e:	8b 50 04             	mov    0x4(%eax),%edx
  102961:	8b 45 10             	mov    0x10(%ebp),%eax
  102964:	89 50 04             	mov    %edx,0x4(%eax)
  102967:	8b 45 0c             	mov    0xc(%ebp),%eax
  10296a:	8b 40 04             	mov    0x4(%eax),%eax
  10296d:	85 c0                	test   %eax,%eax
  10296f:	75 0b                	jne    10297c <fat_list_insert_after+0x2c>
  102971:	8b 45 08             	mov    0x8(%ebp),%eax
  102974:	8b 55 10             	mov    0x10(%ebp),%edx
  102977:	89 50 04             	mov    %edx,0x4(%eax)
  10297a:	eb 0b                	jmp    102987 <fat_list_insert_after+0x37>
  10297c:	8b 45 0c             	mov    0xc(%ebp),%eax
  10297f:	8b 40 04             	mov    0x4(%eax),%eax
  102982:	8b 55 10             	mov    0x10(%ebp),%edx
  102985:	89 10                	mov    %edx,(%eax)
  102987:	8b 45 0c             	mov    0xc(%ebp),%eax
  10298a:	8b 55 10             	mov    0x10(%ebp),%edx
  10298d:	89 50 04             	mov    %edx,0x4(%eax)
  102990:	90                   	nop
  102991:	5d                   	pop    %ebp
  102992:	c3                   	ret    

00102993 <fat_list_insert_before>:
  102993:	55                   	push   %ebp
  102994:	89 e5                	mov    %esp,%ebp
  102996:	8b 45 0c             	mov    0xc(%ebp),%eax
  102999:	8b 10                	mov    (%eax),%edx
  10299b:	8b 45 10             	mov    0x10(%ebp),%eax
  10299e:	89 10                	mov    %edx,(%eax)
  1029a0:	8b 45 10             	mov    0x10(%ebp),%eax
  1029a3:	8b 55 0c             	mov    0xc(%ebp),%edx
  1029a6:	89 50 04             	mov    %edx,0x4(%eax)
  1029a9:	8b 45 0c             	mov    0xc(%ebp),%eax
  1029ac:	8b 00                	mov    (%eax),%eax
  1029ae:	85 c0                	test   %eax,%eax
  1029b0:	75 0a                	jne    1029bc <fat_list_insert_before+0x29>
  1029b2:	8b 45 08             	mov    0x8(%ebp),%eax
  1029b5:	8b 55 10             	mov    0x10(%ebp),%edx
  1029b8:	89 10                	mov    %edx,(%eax)
  1029ba:	eb 0b                	jmp    1029c7 <fat_list_insert_before+0x34>
  1029bc:	8b 45 0c             	mov    0xc(%ebp),%eax
  1029bf:	8b 00                	mov    (%eax),%eax
  1029c1:	8b 55 10             	mov    0x10(%ebp),%edx
  1029c4:	89 50 04             	mov    %edx,0x4(%eax)
  1029c7:	8b 45 0c             	mov    0xc(%ebp),%eax
  1029ca:	8b 55 10             	mov    0x10(%ebp),%edx
  1029cd:	89 10                	mov    %edx,(%eax)
  1029cf:	90                   	nop
  1029d0:	5d                   	pop    %ebp
  1029d1:	c3                   	ret    

001029d2 <fat_list_insert_first>:
  1029d2:	55                   	push   %ebp
  1029d3:	89 e5                	mov    %esp,%ebp
  1029d5:	8b 45 08             	mov    0x8(%ebp),%eax
  1029d8:	8b 00                	mov    (%eax),%eax
  1029da:	85 c0                	test   %eax,%eax
  1029dc:	75 26                	jne    102a04 <fat_list_insert_first+0x32>
  1029de:	8b 45 08             	mov    0x8(%ebp),%eax
  1029e1:	8b 55 0c             	mov    0xc(%ebp),%edx
  1029e4:	89 10                	mov    %edx,(%eax)
  1029e6:	8b 45 08             	mov    0x8(%ebp),%eax
  1029e9:	8b 55 0c             	mov    0xc(%ebp),%edx
  1029ec:	89 50 04             	mov    %edx,0x4(%eax)
  1029ef:	8b 45 0c             	mov    0xc(%ebp),%eax
  1029f2:	c7 00 00 00 00 00    	movl   $0x0,(%eax)
  1029f8:	8b 45 0c             	mov    0xc(%ebp),%eax
  1029fb:	c7 40 04 00 00 00 00 	movl   $0x0,0x4(%eax)
  102a02:	eb 14                	jmp    102a18 <fat_list_insert_first+0x46>
  102a04:	8b 45 08             	mov    0x8(%ebp),%eax
  102a07:	8b 00                	mov    (%eax),%eax
  102a09:	ff 75 0c             	push   0xc(%ebp)
  102a0c:	50                   	push   %eax
  102a0d:	ff 75 08             	push   0x8(%ebp)
  102a10:	e8 7e ff ff ff       	call   102993 <fat_list_insert_before>
  102a15:	83 c4 0c             	add    $0xc,%esp
  102a18:	90                   	nop
  102a19:	c9                   	leave  
  102a1a:	c3                   	ret    

00102a1b <fat_list_insert_last>:
  102a1b:	55                   	push   %ebp
  102a1c:	89 e5                	mov    %esp,%ebp
  102a1e:	8b 45 08             	mov    0x8(%ebp),%eax
  102a21:	8b 40 04             	mov    0x4(%eax),%eax
  102a24:	85 c0                	test   %eax,%eax
  102a26:	75 10                	jne    102a38 <fat_list_insert_last+0x1d>
  102a28:	ff 75 0c             	push   0xc(%ebp)
  102a2b:	ff 75 08             	push   0x8(%ebp)
  102a2e:	e8 9f ff ff ff       	call   1029d2 <fat_list_insert_first>
  102a33:	83 c4 08             	add    $0x8,%esp
  102a36:	eb 15                	jmp    102a4d <fat_list_insert_last+0x32>
  102a38:	8b 45 08             	mov    0x8(%ebp),%eax
  102a3b:	8b 40 04             	mov    0x4(%eax),%eax
  102a3e:	ff 75 0c             	push   0xc(%ebp)
  102a41:	50                   	push   %eax
  102a42:	ff 75 08             	push   0x8(%ebp)
  102a45:	e8 06 ff ff ff       	call   102950 <fat_list_insert_after>
  102a4a:	83 c4 0c             	add    $0xc,%esp
  102a4d:	90                   	nop
  102a4e:	c9                   	leave  
  102a4f:	c3                   	ret    

00102a50 <fat_list_is_empty>:
  102a50:	55                   	push   %ebp
  102a51:	89 e5                	mov    %esp,%ebp
  102a53:	8b 45 08             	mov    0x8(%ebp),%eax
  102a56:	8b 00                	mov    (%eax),%eax
  102a58:	85 c0                	test   %eax,%eax
  102a5a:	0f 94 c0             	sete   %al
  102a5d:	0f b6 c0             	movzbl %al,%eax
  102a60:	5d                   	pop    %ebp
  102a61:	c3                   	ret    

00102a62 <fat_list_pop_head>:
  102a62:	55                   	push   %ebp
  102a63:	89 e5                	mov    %esp,%ebp
  102a65:	83 ec 10             	sub    $0x10,%esp
  102a68:	8b 45 08             	mov    0x8(%ebp),%eax
  102a6b:	8b 00                	mov    (%eax),%eax
  102a6d:	89 45 fc             	mov    %eax,-0x4(%ebp)
  102a70:	83 7d fc 00          	cmpl   $0x0,-0x4(%ebp)
  102a74:	74 0e                	je     102a84 <fat_list_pop_head+0x22>
  102a76:	ff 75 fc             	push   -0x4(%ebp)
  102a79:	ff 75 08             	push   0x8(%ebp)
  102a7c:	e8 81 fe ff ff       	call   102902 <fat_list_remove>
  102a81:	83 c4 08             	add    $0x8,%esp
  102a84:	8b 45 fc             	mov    -0x4(%ebp),%eax
  102a87:	c9                   	leave  
  102a88:	c3                   	ret    

00102a89 <edit_file>:
  102a89:	55                   	push   %ebp
  102a8a:	89 e5                	mov    %esp,%ebp
  102a8c:	81 ec 38 01 00 00    	sub    $0x138,%esp
  102a92:	83 ec 08             	sub    $0x8,%esp
  102a95:	ff 75 08             	push   0x8(%ebp)
  102a98:	8d 85 c8 fe ff ff    	lea    -0x138(%ebp),%eax
  102a9e:	50                   	push   %eax
  102a9f:	e8 40 e5 01 00       	call   120fe4 <strcpy>
  102aa4:	83 c4 10             	add    $0x10,%esp
  102aa7:	83 ec 08             	sub    $0x8,%esp
  102aaa:	68 e8 23 12 00       	push   $0x1223e8
  102aaf:	8d 85 c8 fe ff ff    	lea    -0x138(%ebp),%eax
  102ab5:	50                   	push   %eax
  102ab6:	e8 e8 11 01 00       	call   113ca3 <fopen>
  102abb:	83 c4 10             	add    $0x10,%esp
  102abe:	89 45 e0             	mov    %eax,-0x20(%ebp)
  102ac1:	83 7d e0 00          	cmpl   $0x0,-0x20(%ebp)
  102ac5:	75 21                	jne    102ae8 <edit_file+0x5f>
  102ac7:	83 ec 08             	sub    $0x8,%esp
  102aca:	8d 85 c8 fe ff ff    	lea    -0x138(%ebp),%eax
  102ad0:	50                   	push   %eax
  102ad1:	68 eb 23 12 00       	push   $0x1223eb
  102ad6:	e8 d1 ca 01 00       	call   11f5ac <printf>
  102adb:	83 c4 10             	add    $0x10,%esp
  102ade:	b8 ff ff ff ff       	mov    $0xffffffff,%eax
  102ae3:	e9 15 02 00 00       	jmp    102cfd <edit_file+0x274>
  102ae8:	83 ec 0c             	sub    $0xc,%esp
  102aeb:	ff 75 e0             	push   -0x20(%ebp)
  102aee:	e8 21 56 01 00       	call   118114 <get_file_size>
  102af3:	83 c4 10             	add    $0x10,%esp
  102af6:	89 45 dc             	mov    %eax,-0x24(%ebp)
  102af9:	8b 45 dc             	mov    -0x24(%ebp),%eax
  102afc:	83 c0 64             	add    $0x64,%eax
  102aff:	83 ec 08             	sub    $0x8,%esp
  102b02:	68 28 24 12 00       	push   $0x122428
  102b07:	50                   	push   %eax
  102b08:	e8 04 2b 00 00       	call   105611 <malloc_wrap>
  102b0d:	83 c4 10             	add    $0x10,%esp
  102b10:	89 45 d8             	mov    %eax,-0x28(%ebp)
  102b13:	83 7d d8 00          	cmpl   $0x0,-0x28(%ebp)
  102b17:	75 18                	jne    102b31 <edit_file+0xa8>
  102b19:	83 ec 0c             	sub    $0xc,%esp
  102b1c:	ff 75 e0             	push   -0x20(%ebp)
  102b1f:	e8 ff 15 01 00       	call   114123 <fclose>
  102b24:	83 c4 10             	add    $0x10,%esp
  102b27:	b8 ff ff ff ff       	mov    $0xffffffff,%eax
  102b2c:	e9 cc 01 00 00       	jmp    102cfd <edit_file+0x274>
  102b31:	ff 75 e0             	push   -0x20(%ebp)
  102b34:	ff 75 dc             	push   -0x24(%ebp)
  102b37:	6a 01                	push   $0x1
  102b39:	ff 75 d8             	push   -0x28(%ebp)
  102b3c:	e8 b1 12 01 00       	call   113df2 <fread>
  102b41:	83 c4 10             	add    $0x10,%esp
  102b44:	89 45 d4             	mov    %eax,-0x2c(%ebp)
  102b47:	8b 45 d4             	mov    -0x2c(%ebp),%eax
  102b4a:	3b 45 dc             	cmp    -0x24(%ebp),%eax
  102b4d:	74 36                	je     102b85 <edit_file+0xfc>
  102b4f:	83 ec 0c             	sub    $0xc,%esp
  102b52:	68 fd 23 12 00       	push   $0x1223fd
  102b57:	e8 d4 d2 01 00       	call   11fe30 <perror>
  102b5c:	83 c4 10             	add    $0x10,%esp
  102b5f:	83 ec 0c             	sub    $0xc,%esp
  102b62:	ff 75 d8             	push   -0x28(%ebp)
  102b65:	e8 65 2b 00 00       	call   1056cf <free>
  102b6a:	83 c4 10             	add    $0x10,%esp
  102b6d:	83 ec 0c             	sub    $0xc,%esp
  102b70:	ff 75 e0             	push   -0x20(%ebp)
  102b73:	e8 ab 15 01 00       	call   114123 <fclose>
  102b78:	83 c4 10             	add    $0x10,%esp
  102b7b:	b8 01 00 00 00       	mov    $0x1,%eax
  102b80:	e9 78 01 00 00       	jmp    102cfd <edit_file+0x274>
  102b85:	8b 55 d8             	mov    -0x28(%ebp),%edx
  102b88:	8b 45 dc             	mov    -0x24(%ebp),%eax
  102b8b:	01 d0                	add    %edx,%eax
  102b8d:	c6 00 00             	movb   $0x0,(%eax)
  102b90:	83 ec 08             	sub    $0x8,%esp
  102b93:	ff 75 d8             	push   -0x28(%ebp)
  102b96:	68 10 24 12 00       	push   $0x122410
  102b9b:	e8 0c ca 01 00       	call   11f5ac <printf>
  102ba0:	83 c4 10             	add    $0x10,%esp
  102ba3:	8b 45 dc             	mov    -0x24(%ebp),%eax
  102ba6:	89 45 f4             	mov    %eax,-0xc(%ebp)
  102ba9:	c7 45 f0 00 00 00 00 	movl   $0x0,-0x10(%ebp)
  102bb0:	eb 5c                	jmp    102c0e <edit_file+0x185>
  102bb2:	80 7d d3 08          	cmpb   $0x8,-0x2d(%ebp)
  102bb6:	75 2b                	jne    102be3 <edit_file+0x15a>
  102bb8:	83 7d f4 00          	cmpl   $0x0,-0xc(%ebp)
  102bbc:	7e 50                	jle    102c0e <edit_file+0x185>
  102bbe:	83 6d f4 01          	subl   $0x1,-0xc(%ebp)
  102bc2:	83 6d f0 01          	subl   $0x1,-0x10(%ebp)
  102bc6:	8b 55 f4             	mov    -0xc(%ebp),%edx
  102bc9:	8b 45 d8             	mov    -0x28(%ebp),%eax
  102bcc:	01 d0                	add    %edx,%eax
  102bce:	c6 00 00             	movb   $0x0,(%eax)
  102bd1:	83 ec 0c             	sub    $0xc,%esp
  102bd4:	68 15 24 12 00       	push   $0x122415
  102bd9:	e8 ce c9 01 00       	call   11f5ac <printf>
  102bde:	83 c4 10             	add    $0x10,%esp
  102be1:	eb 2b                	jmp    102c0e <edit_file+0x185>
  102be3:	8b 55 f4             	mov    -0xc(%ebp),%edx
  102be6:	8b 45 d8             	mov    -0x28(%ebp),%eax
  102be9:	01 c2                	add    %eax,%edx
  102beb:	0f b6 45 d3          	movzbl -0x2d(%ebp),%eax
  102bef:	88 02                	mov    %al,(%edx)
  102bf1:	83 45 f4 01          	addl   $0x1,-0xc(%ebp)
  102bf5:	83 45 f0 01          	addl   $0x1,-0x10(%ebp)
  102bf9:	0f be 45 d3          	movsbl -0x2d(%ebp),%eax
  102bfd:	83 ec 08             	sub    $0x8,%esp
  102c00:	50                   	push   %eax
  102c01:	68 17 24 12 00       	push   $0x122417
  102c06:	e8 a1 c9 01 00       	call   11f5ac <printf>
  102c0b:	83 c4 10             	add    $0x10,%esp
  102c0e:	e8 f1 04 01 00       	call   113104 <getch_>
  102c13:	88 45 d3             	mov    %al,-0x2d(%ebp)
  102c16:	80 7d d3 0a          	cmpb   $0xa,-0x2d(%ebp)
  102c1a:	74 06                	je     102c22 <edit_file+0x199>
  102c1c:	80 7d d3 ff          	cmpb   $0xff,-0x2d(%ebp)
  102c20:	75 90                	jne    102bb2 <edit_file+0x129>
  102c22:	8b 45 f4             	mov    -0xc(%ebp),%eax
  102c25:	39 45 dc             	cmp    %eax,-0x24(%ebp)
  102c28:	76 26                	jbe    102c50 <edit_file+0x1c7>
  102c2a:	8b 45 f4             	mov    -0xc(%ebp),%eax
  102c2d:	89 45 ec             	mov    %eax,-0x14(%ebp)
  102c30:	eb 0f                	jmp    102c41 <edit_file+0x1b8>
  102c32:	8b 55 d8             	mov    -0x28(%ebp),%edx
  102c35:	8b 45 ec             	mov    -0x14(%ebp),%eax
  102c38:	01 d0                	add    %edx,%eax
  102c3a:	c6 00 00             	movb   $0x0,(%eax)
  102c3d:	83 45 ec 01          	addl   $0x1,-0x14(%ebp)
  102c41:	8b 45 f4             	mov    -0xc(%ebp),%eax
  102c44:	8b 55 dc             	mov    -0x24(%ebp),%edx
  102c47:	29 c2                	sub    %eax,%edx
  102c49:	89 d0                	mov    %edx,%eax
  102c4b:	39 45 ec             	cmp    %eax,-0x14(%ebp)
  102c4e:	72 e2                	jb     102c32 <edit_file+0x1a9>
  102c50:	83 ec 08             	sub    $0x8,%esp
  102c53:	ff 75 d8             	push   -0x28(%ebp)
  102c56:	68 1a 24 12 00       	push   $0x12241a
  102c5b:	e8 4c c9 01 00       	call   11f5ac <printf>
  102c60:	83 c4 10             	add    $0x10,%esp
  102c63:	83 ec 08             	sub    $0x8,%esp
  102c66:	8d 85 c8 fe ff ff    	lea    -0x138(%ebp),%eax
  102c6c:	50                   	push   %eax
  102c6d:	68 1e 24 12 00       	push   $0x12241e
  102c72:	e8 35 c9 01 00       	call   11f5ac <printf>
  102c77:	83 c4 10             	add    $0x10,%esp
  102c7a:	83 ec 0c             	sub    $0xc,%esp
  102c7d:	ff 75 e0             	push   -0x20(%ebp)
  102c80:	e8 9e 14 01 00       	call   114123 <fclose>
  102c85:	83 c4 10             	add    $0x10,%esp
  102c88:	83 ec 08             	sub    $0x8,%esp
  102c8b:	68 23 24 12 00       	push   $0x122423
  102c90:	8d 85 c8 fe ff ff    	lea    -0x138(%ebp),%eax
  102c96:	50                   	push   %eax
  102c97:	e8 50 40 01 00       	call   116cec <fl_fopen>
  102c9c:	83 c4 10             	add    $0x10,%esp
  102c9f:	89 45 cc             	mov    %eax,-0x34(%ebp)
  102ca2:	8b 45 f4             	mov    -0xc(%ebp),%eax
  102ca5:	39 45 dc             	cmp    %eax,-0x24(%ebp)
  102ca8:	73 08                	jae    102cb2 <edit_file+0x229>
  102caa:	8b 45 f4             	mov    -0xc(%ebp),%eax
  102cad:	89 45 e8             	mov    %eax,-0x18(%ebp)
  102cb0:	eb 06                	jmp    102cb8 <edit_file+0x22f>
  102cb2:	8b 45 dc             	mov    -0x24(%ebp),%eax
  102cb5:	89 45 e8             	mov    %eax,-0x18(%ebp)
  102cb8:	c7 45 e4 00 00 00 00 	movl   $0x0,-0x1c(%ebp)
  102cbf:	eb 21                	jmp    102ce2 <edit_file+0x259>
  102cc1:	8b 55 d8             	mov    -0x28(%ebp),%edx
  102cc4:	8b 45 e4             	mov    -0x1c(%ebp),%eax
  102cc7:	01 d0                	add    %edx,%eax
  102cc9:	0f b6 00             	movzbl (%eax),%eax
  102ccc:	0f be c0             	movsbl %al,%eax
  102ccf:	83 ec 08             	sub    $0x8,%esp
  102cd2:	ff 75 cc             	push   -0x34(%ebp)
  102cd5:	50                   	push   %eax
  102cd6:	e8 dc 12 01 00       	call   113fb7 <fputc>
  102cdb:	83 c4 10             	add    $0x10,%esp
  102cde:	83 45 e4 01          	addl   $0x1,-0x1c(%ebp)
  102ce2:	8b 45 e8             	mov    -0x18(%ebp),%eax
  102ce5:	39 45 e4             	cmp    %eax,-0x1c(%ebp)
  102ce8:	72 d7                	jb     102cc1 <edit_file+0x238>
  102cea:	83 ec 0c             	sub    $0xc,%esp
  102ced:	ff 75 cc             	push   -0x34(%ebp)
  102cf0:	e8 2e 14 01 00       	call   114123 <fclose>
  102cf5:	83 c4 10             	add    $0x10,%esp
  102cf8:	b8 00 00 00 00       	mov    $0x0,%eax
  102cfd:	c9                   	leave  
  102cfe:	c3                   	ret    

00102cff <fat_list_init>:
  102cff:	55                   	push   %ebp
  102d00:	89 e5                	mov    %esp,%ebp
  102d02:	8b 45 08             	mov    0x8(%ebp),%eax
  102d05:	c7 40 04 00 00 00 00 	movl   $0x0,0x4(%eax)
  102d0c:	8b 45 08             	mov    0x8(%ebp),%eax
  102d0f:	8b 50 04             	mov    0x4(%eax),%edx
  102d12:	8b 45 08             	mov    0x8(%ebp),%eax
  102d15:	89 10                	mov    %edx,(%eax)
  102d17:	90                   	nop
  102d18:	5d                   	pop    %ebp
  102d19:	c3                   	ret    

00102d1a <fat_list_remove>:
  102d1a:	55                   	push   %ebp
  102d1b:	89 e5                	mov    %esp,%ebp
  102d1d:	8b 45 0c             	mov    0xc(%ebp),%eax
  102d20:	8b 00                	mov    (%eax),%eax
  102d22:	85 c0                	test   %eax,%eax
  102d24:	75 0d                	jne    102d33 <fat_list_remove+0x19>
  102d26:	8b 45 0c             	mov    0xc(%ebp),%eax
  102d29:	8b 50 04             	mov    0x4(%eax),%edx
  102d2c:	8b 45 08             	mov    0x8(%ebp),%eax
  102d2f:	89 10                	mov    %edx,(%eax)
  102d31:	eb 0e                	jmp    102d41 <fat_list_remove+0x27>
  102d33:	8b 45 0c             	mov    0xc(%ebp),%eax
  102d36:	8b 00                	mov    (%eax),%eax
  102d38:	8b 55 0c             	mov    0xc(%ebp),%edx
  102d3b:	8b 52 04             	mov    0x4(%edx),%edx
  102d3e:	89 50 04             	mov    %edx,0x4(%eax)
  102d41:	8b 45 0c             	mov    0xc(%ebp),%eax
  102d44:	8b 40 04             	mov    0x4(%eax),%eax
  102d47:	85 c0                	test   %eax,%eax
  102d49:	75 0d                	jne    102d58 <fat_list_remove+0x3e>
  102d4b:	8b 45 0c             	mov    0xc(%ebp),%eax
  102d4e:	8b 10                	mov    (%eax),%edx
  102d50:	8b 45 08             	mov    0x8(%ebp),%eax
  102d53:	89 50 04             	mov    %edx,0x4(%eax)
  102d56:	eb 0d                	jmp    102d65 <fat_list_remove+0x4b>
  102d58:	8b 45 0c             	mov    0xc(%ebp),%eax
  102d5b:	8b 40 04             	mov    0x4(%eax),%eax
  102d5e:	8b 55 0c             	mov    0xc(%ebp),%edx
  102d61:	8b 12                	mov    (%edx),%edx
  102d63:	89 10                	mov    %edx,(%eax)
  102d65:	90                   	nop
  102d66:	5d                   	pop    %ebp
  102d67:	c3                   	ret    

00102d68 <fat_list_insert_after>:
  102d68:	55                   	push   %ebp
  102d69:	89 e5                	mov    %esp,%ebp
  102d6b:	8b 45 10             	mov    0x10(%ebp),%eax
  102d6e:	8b 55 0c             	mov    0xc(%ebp),%edx
  102d71:	89 10                	mov    %edx,(%eax)
  102d73:	8b 45 0c             	mov    0xc(%ebp),%eax
  102d76:	8b 50 04             	mov    0x4(%eax),%edx
  102d79:	8b 45 10             	mov    0x10(%ebp),%eax
  102d7c:	89 50 04             	mov    %edx,0x4(%eax)
  102d7f:	8b 45 0c             	mov    0xc(%ebp),%eax
  102d82:	8b 40 04             	mov    0x4(%eax),%eax
  102d85:	85 c0                	test   %eax,%eax
  102d87:	75 0b                	jne    102d94 <fat_list_insert_after+0x2c>
  102d89:	8b 45 08             	mov    0x8(%ebp),%eax
  102d8c:	8b 55 10             	mov    0x10(%ebp),%edx
  102d8f:	89 50 04             	mov    %edx,0x4(%eax)
  102d92:	eb 0b                	jmp    102d9f <fat_list_insert_after+0x37>
  102d94:	8b 45 0c             	mov    0xc(%ebp),%eax
  102d97:	8b 40 04             	mov    0x4(%eax),%eax
  102d9a:	8b 55 10             	mov    0x10(%ebp),%edx
  102d9d:	89 10                	mov    %edx,(%eax)
  102d9f:	8b 45 0c             	mov    0xc(%ebp),%eax
  102da2:	8b 55 10             	mov    0x10(%ebp),%edx
  102da5:	89 50 04             	mov    %edx,0x4(%eax)
  102da8:	90                   	nop
  102da9:	5d                   	pop    %ebp
  102daa:	c3                   	ret    

00102dab <fat_list_insert_before>:
  102dab:	55                   	push   %ebp
  102dac:	89 e5                	mov    %esp,%ebp
  102dae:	8b 45 0c             	mov    0xc(%ebp),%eax
  102db1:	8b 10                	mov    (%eax),%edx
  102db3:	8b 45 10             	mov    0x10(%ebp),%eax
  102db6:	89 10                	mov    %edx,(%eax)
  102db8:	8b 45 10             	mov    0x10(%ebp),%eax
  102dbb:	8b 55 0c             	mov    0xc(%ebp),%edx
  102dbe:	89 50 04             	mov    %edx,0x4(%eax)
  102dc1:	8b 45 0c             	mov    0xc(%ebp),%eax
  102dc4:	8b 00                	mov    (%eax),%eax
  102dc6:	85 c0                	test   %eax,%eax
  102dc8:	75 0a                	jne    102dd4 <fat_list_insert_before+0x29>
  102dca:	8b 45 08             	mov    0x8(%ebp),%eax
  102dcd:	8b 55 10             	mov    0x10(%ebp),%edx
  102dd0:	89 10                	mov    %edx,(%eax)
  102dd2:	eb 0b                	jmp    102ddf <fat_list_insert_before+0x34>
  102dd4:	8b 45 0c             	mov    0xc(%ebp),%eax
  102dd7:	8b 00                	mov    (%eax),%eax
  102dd9:	8b 55 10             	mov    0x10(%ebp),%edx
  102ddc:	89 50 04             	mov    %edx,0x4(%eax)
  102ddf:	8b 45 0c             	mov    0xc(%ebp),%eax
  102de2:	8b 55 10             	mov    0x10(%ebp),%edx
  102de5:	89 10                	mov    %edx,(%eax)
  102de7:	90                   	nop
  102de8:	5d                   	pop    %ebp
  102de9:	c3                   	ret    

00102dea <fat_list_insert_first>:
  102dea:	55                   	push   %ebp
  102deb:	89 e5                	mov    %esp,%ebp
  102ded:	8b 45 08             	mov    0x8(%ebp),%eax
  102df0:	8b 00                	mov    (%eax),%eax
  102df2:	85 c0                	test   %eax,%eax
  102df4:	75 26                	jne    102e1c <fat_list_insert_first+0x32>
  102df6:	8b 45 08             	mov    0x8(%ebp),%eax
  102df9:	8b 55 0c             	mov    0xc(%ebp),%edx
  102dfc:	89 10                	mov    %edx,(%eax)
  102dfe:	8b 45 08             	mov    0x8(%ebp),%eax
  102e01:	8b 55 0c             	mov    0xc(%ebp),%edx
  102e04:	89 50 04             	mov    %edx,0x4(%eax)
  102e07:	8b 45 0c             	mov    0xc(%ebp),%eax
  102e0a:	c7 00 00 00 00 00    	movl   $0x0,(%eax)
  102e10:	8b 45 0c             	mov    0xc(%ebp),%eax
  102e13:	c7 40 04 00 00 00 00 	movl   $0x0,0x4(%eax)
  102e1a:	eb 14                	jmp    102e30 <fat_list_insert_first+0x46>
  102e1c:	8b 45 08             	mov    0x8(%ebp),%eax
  102e1f:	8b 00                	mov    (%eax),%eax
  102e21:	ff 75 0c             	push   0xc(%ebp)
  102e24:	50                   	push   %eax
  102e25:	ff 75 08             	push   0x8(%ebp)
  102e28:	e8 7e ff ff ff       	call   102dab <fat_list_insert_before>
  102e2d:	83 c4 0c             	add    $0xc,%esp
  102e30:	90                   	nop
  102e31:	c9                   	leave  
  102e32:	c3                   	ret    

00102e33 <fat_list_insert_last>:
  102e33:	55                   	push   %ebp
  102e34:	89 e5                	mov    %esp,%ebp
  102e36:	8b 45 08             	mov    0x8(%ebp),%eax
  102e39:	8b 40 04             	mov    0x4(%eax),%eax
  102e3c:	85 c0                	test   %eax,%eax
  102e3e:	75 10                	jne    102e50 <fat_list_insert_last+0x1d>
  102e40:	ff 75 0c             	push   0xc(%ebp)
  102e43:	ff 75 08             	push   0x8(%ebp)
  102e46:	e8 9f ff ff ff       	call   102dea <fat_list_insert_first>
  102e4b:	83 c4 08             	add    $0x8,%esp
  102e4e:	eb 15                	jmp    102e65 <fat_list_insert_last+0x32>
  102e50:	8b 45 08             	mov    0x8(%ebp),%eax
  102e53:	8b 40 04             	mov    0x4(%eax),%eax
  102e56:	ff 75 0c             	push   0xc(%ebp)
  102e59:	50                   	push   %eax
  102e5a:	ff 75 08             	push   0x8(%ebp)
  102e5d:	e8 06 ff ff ff       	call   102d68 <fat_list_insert_after>
  102e62:	83 c4 0c             	add    $0xc,%esp
  102e65:	90                   	nop
  102e66:	c9                   	leave  
  102e67:	c3                   	ret    

00102e68 <fat_list_is_empty>:
  102e68:	55                   	push   %ebp
  102e69:	89 e5                	mov    %esp,%ebp
  102e6b:	8b 45 08             	mov    0x8(%ebp),%eax
  102e6e:	8b 00                	mov    (%eax),%eax
  102e70:	85 c0                	test   %eax,%eax
  102e72:	0f 94 c0             	sete   %al
  102e75:	0f b6 c0             	movzbl %al,%eax
  102e78:	5d                   	pop    %ebp
  102e79:	c3                   	ret    

00102e7a <fat_list_pop_head>:
  102e7a:	55                   	push   %ebp
  102e7b:	89 e5                	mov    %esp,%ebp
  102e7d:	83 ec 10             	sub    $0x10,%esp
  102e80:	8b 45 08             	mov    0x8(%ebp),%eax
  102e83:	8b 00                	mov    (%eax),%eax
  102e85:	89 45 fc             	mov    %eax,-0x4(%ebp)
  102e88:	83 7d fc 00          	cmpl   $0x0,-0x4(%ebp)
  102e8c:	74 0e                	je     102e9c <fat_list_pop_head+0x22>
  102e8e:	ff 75 fc             	push   -0x4(%ebp)
  102e91:	ff 75 08             	push   0x8(%ebp)
  102e94:	e8 81 fe ff ff       	call   102d1a <fat_list_remove>
  102e99:	83 c4 08             	add    $0x8,%esp
  102e9c:	8b 45 fc             	mov    -0x4(%ebp),%eax
  102e9f:	c9                   	leave  
  102ea0:	c3                   	ret    

00102ea1 <parse_command>:
  102ea1:	55                   	push   %ebp
  102ea2:	89 e5                	mov    %esp,%ebp
  102ea4:	53                   	push   %ebx
  102ea5:	83 ec 14             	sub    $0x14,%esp
  102ea8:	68 40 2c 12 00       	push   $0x122c40
  102ead:	6a 24                	push   $0x24
  102eaf:	68 34 24 12 00       	push   $0x122434
  102eb4:	68 49 24 12 00       	push   $0x122449
  102eb9:	e8 75 dd ff ff       	call   100c33 <printf_com>
  102ebe:	83 c4 10             	add    $0x10,%esp
  102ec1:	83 ec 08             	sub    $0x8,%esp
  102ec4:	68 40 2c 12 00       	push   $0x122c40
  102ec9:	68 00 01 00 00       	push   $0x100
  102ece:	e8 3e 27 00 00       	call   105611 <malloc_wrap>
  102ed3:	83 c4 10             	add    $0x10,%esp
  102ed6:	89 45 ec             	mov    %eax,-0x14(%ebp)
  102ed9:	68 40 2c 12 00       	push   $0x122c40
  102ede:	6a 26                	push   $0x26
  102ee0:	68 34 24 12 00       	push   $0x122434
  102ee5:	68 49 24 12 00       	push   $0x122449
  102eea:	e8 44 dd ff ff       	call   100c33 <printf_com>
  102eef:	83 c4 10             	add    $0x10,%esp
  102ef2:	83 7d ec 00          	cmpl   $0x0,-0x14(%ebp)
  102ef6:	75 1a                	jne    102f12 <parse_command+0x71>
  102ef8:	83 ec 0c             	sub    $0xc,%esp
  102efb:	68 56 24 12 00       	push   $0x122456
  102f00:	e8 a7 c6 01 00       	call   11f5ac <printf>
  102f05:	83 c4 10             	add    $0x10,%esp
  102f08:	b8 00 00 00 00       	mov    $0x0,%eax
  102f0d:	e9 eb 01 00 00       	jmp    1030fd <parse_command+0x25c>
  102f12:	83 7d ec 00          	cmpl   $0x0,-0x14(%ebp)
  102f16:	75 13                	jne    102f2b <parse_command+0x8a>
  102f18:	8b 45 0c             	mov    0xc(%ebp),%eax
  102f1b:	c7 00 ff ff ff ff    	movl   $0xffffffff,(%eax)
  102f21:	b8 00 00 00 00       	mov    $0x0,%eax
  102f26:	e9 d2 01 00 00       	jmp    1030fd <parse_command+0x25c>
  102f2b:	c7 45 f4 00 00 00 00 	movl   $0x0,-0xc(%ebp)
  102f32:	83 ec 08             	sub    $0x8,%esp
  102f35:	68 68 24 12 00       	push   $0x122468
  102f3a:	ff 75 08             	push   0x8(%ebp)
  102f3d:	e8 db dc 01 00       	call   120c1d <strtok>
  102f42:	83 c4 10             	add    $0x10,%esp
  102f45:	89 45 f0             	mov    %eax,-0x10(%ebp)
  102f48:	e9 9b 01 00 00       	jmp    1030e8 <parse_command+0x247>
  102f4d:	8b 45 f0             	mov    -0x10(%ebp),%eax
  102f50:	0f b6 00             	movzbl (%eax),%eax
  102f53:	3c 22                	cmp    $0x22,%al
  102f55:	0f 85 fd 00 00 00    	jne    103058 <parse_command+0x1b7>
  102f5b:	8b 45 f0             	mov    -0x10(%ebp),%eax
  102f5e:	83 c0 01             	add    $0x1,%eax
  102f61:	83 ec 08             	sub    $0x8,%esp
  102f64:	6a 22                	push   $0x22
  102f66:	50                   	push   %eax
  102f67:	e8 84 dc 01 00       	call   120bf0 <strchr>
  102f6c:	83 c4 10             	add    $0x10,%esp
  102f6f:	89 45 e8             	mov    %eax,-0x18(%ebp)
  102f72:	83 7d e8 00          	cmpl   $0x0,-0x18(%ebp)
  102f76:	75 1d                	jne    102f95 <parse_command+0xf4>
  102f78:	8b 45 f4             	mov    -0xc(%ebp),%eax
  102f7b:	8d 14 85 00 00 00 00 	lea    0x0(,%eax,4),%edx
  102f82:	8b 45 ec             	mov    -0x14(%ebp),%eax
  102f85:	01 c2                	add    %eax,%edx
  102f87:	8b 45 f0             	mov    -0x10(%ebp),%eax
  102f8a:	89 02                	mov    %eax,(%edx)
  102f8c:	83 45 f4 01          	addl   $0x1,-0xc(%ebp)
  102f90:	e9 a9 00 00 00       	jmp    10303e <parse_command+0x19d>
  102f95:	8b 45 e8             	mov    -0x18(%ebp),%eax
  102f98:	2b 45 f0             	sub    -0x10(%ebp),%eax
  102f9b:	83 c0 01             	add    $0x1,%eax
  102f9e:	89 c1                	mov    %eax,%ecx
  102fa0:	8b 45 f4             	mov    -0xc(%ebp),%eax
  102fa3:	8d 14 85 00 00 00 00 	lea    0x0(,%eax,4),%edx
  102faa:	8b 45 ec             	mov    -0x14(%ebp),%eax
  102fad:	8d 1c 02             	lea    (%edx,%eax,1),%ebx
  102fb0:	83 ec 08             	sub    $0x8,%esp
  102fb3:	68 40 2c 12 00       	push   $0x122c40
  102fb8:	51                   	push   %ecx
  102fb9:	e8 53 26 00 00       	call   105611 <malloc_wrap>
  102fbe:	83 c4 10             	add    $0x10,%esp
  102fc1:	89 03                	mov    %eax,(%ebx)
  102fc3:	8b 45 f4             	mov    -0xc(%ebp),%eax
  102fc6:	8d 14 85 00 00 00 00 	lea    0x0(,%eax,4),%edx
  102fcd:	8b 45 ec             	mov    -0x14(%ebp),%eax
  102fd0:	01 d0                	add    %edx,%eax
  102fd2:	8b 00                	mov    (%eax),%eax
  102fd4:	85 c0                	test   %eax,%eax
  102fd6:	75 13                	jne    102feb <parse_command+0x14a>
  102fd8:	8b 45 0c             	mov    0xc(%ebp),%eax
  102fdb:	c7 00 ff ff ff ff    	movl   $0xffffffff,(%eax)
  102fe1:	b8 00 00 00 00       	mov    $0x0,%eax
  102fe6:	e9 12 01 00 00       	jmp    1030fd <parse_command+0x25c>
  102feb:	8b 45 e8             	mov    -0x18(%ebp),%eax
  102fee:	2b 45 f0             	sub    -0x10(%ebp),%eax
  102ff1:	83 e8 01             	sub    $0x1,%eax
  102ff4:	89 c3                	mov    %eax,%ebx
  102ff6:	8b 45 f0             	mov    -0x10(%ebp),%eax
  102ff9:	8d 50 01             	lea    0x1(%eax),%edx
  102ffc:	8b 45 f4             	mov    -0xc(%ebp),%eax
  102fff:	8d 0c 85 00 00 00 00 	lea    0x0(,%eax,4),%ecx
  103006:	8b 45 ec             	mov    -0x14(%ebp),%eax
  103009:	01 c8                	add    %ecx,%eax
  10300b:	8b 00                	mov    (%eax),%eax
  10300d:	83 ec 04             	sub    $0x4,%esp
  103010:	53                   	push   %ebx
  103011:	52                   	push   %edx
  103012:	50                   	push   %eax
  103013:	e8 53 e1 01 00       	call   12116b <strncpy>
  103018:	83 c4 10             	add    $0x10,%esp
  10301b:	8b 45 f4             	mov    -0xc(%ebp),%eax
  10301e:	8d 14 85 00 00 00 00 	lea    0x0(,%eax,4),%edx
  103025:	8b 45 ec             	mov    -0x14(%ebp),%eax
  103028:	01 d0                	add    %edx,%eax
  10302a:	8b 10                	mov    (%eax),%edx
  10302c:	8b 45 e8             	mov    -0x18(%ebp),%eax
  10302f:	2b 45 f0             	sub    -0x10(%ebp),%eax
  103032:	83 e8 01             	sub    $0x1,%eax
  103035:	01 d0                	add    %edx,%eax
  103037:	c6 00 00             	movb   $0x0,(%eax)
  10303a:	83 45 f4 01          	addl   $0x1,-0xc(%ebp)
  10303e:	83 ec 08             	sub    $0x8,%esp
  103041:	68 68 24 12 00       	push   $0x122468
  103046:	6a 00                	push   $0x0
  103048:	e8 d0 db 01 00       	call   120c1d <strtok>
  10304d:	83 c4 10             	add    $0x10,%esp
  103050:	89 45 f0             	mov    %eax,-0x10(%ebp)
  103053:	e9 90 00 00 00       	jmp    1030e8 <parse_command+0x247>
  103058:	83 ec 0c             	sub    $0xc,%esp
  10305b:	ff 75 f0             	push   -0x10(%ebp)
  10305e:	e8 9d de 01 00       	call   120f00 <strlen>
  103063:	83 c4 10             	add    $0x10,%esp
  103066:	83 c0 01             	add    $0x1,%eax
  103069:	83 ec 0c             	sub    $0xc,%esp
  10306c:	50                   	push   %eax
  10306d:	e8 3e 22 00 00       	call   1052b0 <kmalloc>
  103072:	83 c4 10             	add    $0x10,%esp
  103075:	89 c1                	mov    %eax,%ecx
  103077:	8b 45 f4             	mov    -0xc(%ebp),%eax
  10307a:	8d 14 85 00 00 00 00 	lea    0x0(,%eax,4),%edx
  103081:	8b 45 ec             	mov    -0x14(%ebp),%eax
  103084:	01 d0                	add    %edx,%eax
  103086:	89 ca                	mov    %ecx,%edx
  103088:	89 10                	mov    %edx,(%eax)
  10308a:	8b 45 f4             	mov    -0xc(%ebp),%eax
  10308d:	8d 14 85 00 00 00 00 	lea    0x0(,%eax,4),%edx
  103094:	8b 45 ec             	mov    -0x14(%ebp),%eax
  103097:	01 d0                	add    %edx,%eax
  103099:	8b 00                	mov    (%eax),%eax
  10309b:	85 c0                	test   %eax,%eax
  10309d:	75 10                	jne    1030af <parse_command+0x20e>
  10309f:	8b 45 0c             	mov    0xc(%ebp),%eax
  1030a2:	c7 00 ff ff ff ff    	movl   $0xffffffff,(%eax)
  1030a8:	b8 00 00 00 00       	mov    $0x0,%eax
  1030ad:	eb 4e                	jmp    1030fd <parse_command+0x25c>
  1030af:	8b 45 f4             	mov    -0xc(%ebp),%eax
  1030b2:	8d 14 85 00 00 00 00 	lea    0x0(,%eax,4),%edx
  1030b9:	8b 45 ec             	mov    -0x14(%ebp),%eax
  1030bc:	01 d0                	add    %edx,%eax
  1030be:	8b 00                	mov    (%eax),%eax
  1030c0:	83 ec 08             	sub    $0x8,%esp
  1030c3:	ff 75 f0             	push   -0x10(%ebp)
  1030c6:	50                   	push   %eax
  1030c7:	e8 18 df 01 00       	call   120fe4 <strcpy>
  1030cc:	83 c4 10             	add    $0x10,%esp
  1030cf:	83 45 f4 01          	addl   $0x1,-0xc(%ebp)
  1030d3:	83 ec 08             	sub    $0x8,%esp
  1030d6:	68 68 24 12 00       	push   $0x122468
  1030db:	6a 00                	push   $0x0
  1030dd:	e8 3b db 01 00       	call   120c1d <strtok>
  1030e2:	83 c4 10             	add    $0x10,%esp
  1030e5:	89 45 f0             	mov    %eax,-0x10(%ebp)
  1030e8:	83 7d f0 00          	cmpl   $0x0,-0x10(%ebp)
  1030ec:	0f 85 5b fe ff ff    	jne    102f4d <parse_command+0xac>
  1030f2:	8b 45 0c             	mov    0xc(%ebp),%eax
  1030f5:	8b 55 f4             	mov    -0xc(%ebp),%edx
  1030f8:	89 10                	mov    %edx,(%eax)
  1030fa:	8b 45 ec             	mov    -0x14(%ebp),%eax
  1030fd:	8b 5d fc             	mov    -0x4(%ebp),%ebx
  103100:	c9                   	leave  
  103101:	c3                   	ret    

00103102 <cls>:
  103102:	55                   	push   %ebp
  103103:	89 e5                	mov    %esp,%ebp
  103105:	83 ec 08             	sub    $0x8,%esp
  103108:	e8 61 e7 00 00       	call   11186e <clear_screen>
  10310d:	83 ec 0c             	sub    $0xc,%esp
  103110:	6a 00                	push   $0x0
  103112:	e8 2f cf 00 00       	call   110046 <set_terminal_postion_x>
  103117:	83 c4 10             	add    $0x10,%esp
  10311a:	83 ec 0c             	sub    $0xc,%esp
  10311d:	6a 00                	push   $0x0
  10311f:	e8 30 cf 00 00       	call   110054 <set_terminal_postion_y>
  103124:	83 c4 10             	add    $0x10,%esp
  103127:	90                   	nop
  103128:	c9                   	leave  
  103129:	c3                   	ret    

0010312a <move_back_one_folder>:
  10312a:	55                   	push   %ebp
  10312b:	89 e5                	mov    %esp,%ebp
  10312d:	83 ec 18             	sub    $0x18,%esp
  103130:	83 7d 08 00          	cmpl   $0x0,0x8(%ebp)
  103134:	74 12                	je     103148 <move_back_one_folder+0x1e>
  103136:	83 ec 0c             	sub    $0xc,%esp
  103139:	ff 75 08             	push   0x8(%ebp)
  10313c:	e8 bf dd 01 00       	call   120f00 <strlen>
  103141:	83 c4 10             	add    $0x10,%esp
  103144:	85 c0                	test   %eax,%eax
  103146:	75 08                	jne    103150 <move_back_one_folder+0x26>
  103148:	8b 45 08             	mov    0x8(%ebp),%eax
  10314b:	e9 ab 00 00 00       	jmp    1031fb <move_back_one_folder+0xd1>
  103150:	83 ec 0c             	sub    $0xc,%esp
  103153:	ff 75 08             	push   0x8(%ebp)
  103156:	e8 a5 dd 01 00       	call   120f00 <strlen>
  10315b:	83 c4 10             	add    $0x10,%esp
  10315e:	89 45 f0             	mov    %eax,-0x10(%ebp)
  103161:	8b 45 f0             	mov    -0x10(%ebp),%eax
  103164:	83 c0 01             	add    $0x1,%eax
  103167:	83 ec 08             	sub    $0x8,%esp
  10316a:	68 50 2c 12 00       	push   $0x122c50
  10316f:	50                   	push   %eax
  103170:	e8 9c 24 00 00       	call   105611 <malloc_wrap>
  103175:	83 c4 10             	add    $0x10,%esp
  103178:	89 45 ec             	mov    %eax,-0x14(%ebp)
  10317b:	83 7d ec 00          	cmpl   $0x0,-0x14(%ebp)
  10317f:	75 07                	jne    103188 <move_back_one_folder+0x5e>
  103181:	b8 00 00 00 00       	mov    $0x0,%eax
  103186:	eb 73                	jmp    1031fb <move_back_one_folder+0xd1>
  103188:	83 ec 08             	sub    $0x8,%esp
  10318b:	6a 2f                	push   $0x2f
  10318d:	ff 75 08             	push   0x8(%ebp)
  103190:	e8 c2 e5 01 00       	call   121757 <strrchr>
  103195:	83 c4 10             	add    $0x10,%esp
  103198:	89 45 f4             	mov    %eax,-0xc(%ebp)
  10319b:	83 7d f4 00          	cmpl   $0x0,-0xc(%ebp)
  10319f:	75 13                	jne    1031b4 <move_back_one_folder+0x8a>
  1031a1:	83 ec 08             	sub    $0x8,%esp
  1031a4:	6a 5c                	push   $0x5c
  1031a6:	ff 75 08             	push   0x8(%ebp)
  1031a9:	e8 a9 e5 01 00       	call   121757 <strrchr>
  1031ae:	83 c4 10             	add    $0x10,%esp
  1031b1:	89 45 f4             	mov    %eax,-0xc(%ebp)
  1031b4:	83 7d f4 00          	cmpl   $0x0,-0xc(%ebp)
  1031b8:	75 16                	jne    1031d0 <move_back_one_folder+0xa6>
  1031ba:	83 ec 08             	sub    $0x8,%esp
  1031bd:	ff 75 08             	push   0x8(%ebp)
  1031c0:	ff 75 ec             	push   -0x14(%ebp)
  1031c3:	e8 1c de 01 00       	call   120fe4 <strcpy>
  1031c8:	83 c4 10             	add    $0x10,%esp
  1031cb:	8b 45 ec             	mov    -0x14(%ebp),%eax
  1031ce:	eb 2b                	jmp    1031fb <move_back_one_folder+0xd1>
  1031d0:	8b 45 f4             	mov    -0xc(%ebp),%eax
  1031d3:	2b 45 08             	sub    0x8(%ebp),%eax
  1031d6:	83 ec 04             	sub    $0x4,%esp
  1031d9:	50                   	push   %eax
  1031da:	ff 75 08             	push   0x8(%ebp)
  1031dd:	ff 75 ec             	push   -0x14(%ebp)
  1031e0:	e8 86 df 01 00       	call   12116b <strncpy>
  1031e5:	83 c4 10             	add    $0x10,%esp
  1031e8:	8b 45 f4             	mov    -0xc(%ebp),%eax
  1031eb:	2b 45 08             	sub    0x8(%ebp),%eax
  1031ee:	89 c2                	mov    %eax,%edx
  1031f0:	8b 45 ec             	mov    -0x14(%ebp),%eax
  1031f3:	01 d0                	add    %edx,%eax
  1031f5:	c6 00 00             	movb   $0x0,(%eax)
  1031f8:	8b 45 ec             	mov    -0x14(%ebp),%eax
  1031fb:	c9                   	leave  
  1031fc:	c3                   	ret    

001031fd <free_command>:
  1031fd:	55                   	push   %ebp
  1031fe:	89 e5                	mov    %esp,%ebp
  103200:	83 ec 18             	sub    $0x18,%esp
  103203:	c7 45 f4 00 00 00 00 	movl   $0x0,-0xc(%ebp)
  10320a:	eb 3d                	jmp    103249 <free_command+0x4c>
  10320c:	68 68 2c 12 00       	push   $0x122c68
  103211:	68 86 00 00 00       	push   $0x86
  103216:	68 34 24 12 00       	push   $0x122434
  10321b:	68 49 24 12 00       	push   $0x122449
  103220:	e8 0e da ff ff       	call   100c33 <printf_com>
  103225:	83 c4 10             	add    $0x10,%esp
  103228:	8b 45 f4             	mov    -0xc(%ebp),%eax
  10322b:	8d 14 85 00 00 00 00 	lea    0x0(,%eax,4),%edx
  103232:	8b 45 08             	mov    0x8(%ebp),%eax
  103235:	01 d0                	add    %edx,%eax
  103237:	8b 00                	mov    (%eax),%eax
  103239:	83 ec 0c             	sub    $0xc,%esp
  10323c:	50                   	push   %eax
  10323d:	e8 8d 24 00 00       	call   1056cf <free>
  103242:	83 c4 10             	add    $0x10,%esp
  103245:	83 45 f4 01          	addl   $0x1,-0xc(%ebp)
  103249:	8b 45 f4             	mov    -0xc(%ebp),%eax
  10324c:	3b 45 0c             	cmp    0xc(%ebp),%eax
  10324f:	7c bb                	jl     10320c <free_command+0xf>
  103251:	83 ec 0c             	sub    $0xc,%esp
  103254:	ff 75 08             	push   0x8(%ebp)
  103257:	e8 73 24 00 00       	call   1056cf <free>
  10325c:	83 c4 10             	add    $0x10,%esp
  10325f:	90                   	nop
  103260:	c9                   	leave  
  103261:	c3                   	ret    

00103262 <set_cwd>:
  103262:	55                   	push   %ebp
  103263:	89 e5                	mov    %esp,%ebp
  103265:	81 ec 18 01 00 00    	sub    $0x118,%esp
  10326b:	83 7d 08 00          	cmpl   $0x0,0x8(%ebp)
  10326f:	0f 84 e3 00 00 00    	je     103358 <set_cwd+0xf6>
  103275:	83 ec 04             	sub    $0x4,%esp
  103278:	68 04 01 00 00       	push   $0x104
  10327d:	6a 00                	push   $0x0
  10327f:	8d 85 f4 fe ff ff    	lea    -0x10c(%ebp),%eax
  103285:	50                   	push   %eax
  103286:	e8 33 d9 01 00       	call   120bbe <memset>
  10328b:	83 c4 10             	add    $0x10,%esp
  10328e:	8b 45 08             	mov    0x8(%ebp),%eax
  103291:	0f b6 00             	movzbl (%eax),%eax
  103294:	3c 2f                	cmp    $0x2f,%al
  103296:	75 13                	jne    1032ab <set_cwd+0x49>
  103298:	83 ec 0c             	sub    $0xc,%esp
  10329b:	ff 75 08             	push   0x8(%ebp)
  10329e:	e8 3c 05 01 00       	call   1137df <chdir>
  1032a3:	83 c4 10             	add    $0x10,%esp
  1032a6:	e9 ae 00 00 00       	jmp    103359 <set_cwd+0xf7>
  1032ab:	83 ec 08             	sub    $0x8,%esp
  1032ae:	68 6a 24 12 00       	push   $0x12246a
  1032b3:	ff 75 08             	push   0x8(%ebp)
  1032b6:	e8 6d dc 01 00       	call   120f28 <strcmp>
  1032bb:	83 c4 10             	add    $0x10,%esp
  1032be:	85 c0                	test   %eax,%eax
  1032c0:	75 13                	jne    1032d5 <set_cwd+0x73>
  1032c2:	83 ec 0c             	sub    $0xc,%esp
  1032c5:	ff 75 08             	push   0x8(%ebp)
  1032c8:	e8 12 05 01 00       	call   1137df <chdir>
  1032cd:	83 c4 10             	add    $0x10,%esp
  1032d0:	e9 84 00 00 00       	jmp    103359 <set_cwd+0xf7>
  1032d5:	e8 ff 06 01 00       	call   1139d9 <getcwd>
  1032da:	83 ec 08             	sub    $0x8,%esp
  1032dd:	50                   	push   %eax
  1032de:	8d 85 f4 fe ff ff    	lea    -0x10c(%ebp),%eax
  1032e4:	50                   	push   %eax
  1032e5:	e8 fa dc 01 00       	call   120fe4 <strcpy>
  1032ea:	83 c4 10             	add    $0x10,%esp
  1032ed:	8b 45 08             	mov    0x8(%ebp),%eax
  1032f0:	0f b6 00             	movzbl (%eax),%eax
  1032f3:	3c 2f                	cmp    $0x2f,%al
  1032f5:	74 38                	je     10332f <set_cwd+0xcd>
  1032f7:	83 ec 0c             	sub    $0xc,%esp
  1032fa:	8d 85 f4 fe ff ff    	lea    -0x10c(%ebp),%eax
  103300:	50                   	push   %eax
  103301:	e8 fa db 01 00       	call   120f00 <strlen>
  103306:	83 c4 10             	add    $0x10,%esp
  103309:	83 e8 01             	sub    $0x1,%eax
  10330c:	0f b6 84 05 f4 fe ff 	movzbl -0x10c(%ebp,%eax,1),%eax
  103313:	ff 
  103314:	3c 2f                	cmp    $0x2f,%al
  103316:	74 17                	je     10332f <set_cwd+0xcd>
  103318:	83 ec 08             	sub    $0x8,%esp
  10331b:	68 6d 24 12 00       	push   $0x12246d
  103320:	8d 85 f4 fe ff ff    	lea    -0x10c(%ebp),%eax
  103326:	50                   	push   %eax
  103327:	e8 cc dd 01 00       	call   1210f8 <strcat>
  10332c:	83 c4 10             	add    $0x10,%esp
  10332f:	83 ec 08             	sub    $0x8,%esp
  103332:	ff 75 08             	push   0x8(%ebp)
  103335:	8d 85 f4 fe ff ff    	lea    -0x10c(%ebp),%eax
  10333b:	50                   	push   %eax
  10333c:	e8 b7 dd 01 00       	call   1210f8 <strcat>
  103341:	83 c4 10             	add    $0x10,%esp
  103344:	83 ec 0c             	sub    $0xc,%esp
  103347:	8d 85 f4 fe ff ff    	lea    -0x10c(%ebp),%eax
  10334d:	50                   	push   %eax
  10334e:	e8 8c 04 01 00       	call   1137df <chdir>
  103353:	83 c4 10             	add    $0x10,%esp
  103356:	eb 01                	jmp    103359 <set_cwd+0xf7>
  103358:	90                   	nop
  103359:	c9                   	leave  
  10335a:	c3                   	ret    

0010335b <help>:
  10335b:	55                   	push   %ebp
  10335c:	89 e5                	mov    %esp,%ebp
  10335e:	83 ec 08             	sub    $0x8,%esp
  103361:	83 ec 0c             	sub    $0xc,%esp
  103364:	68 6f 24 12 00       	push   $0x12246f
  103369:	e8 3e c2 01 00       	call   11f5ac <printf>
  10336e:	83 c4 10             	add    $0x10,%esp
  103371:	83 ec 0c             	sub    $0xc,%esp
  103374:	68 84 24 12 00       	push   $0x122484
  103379:	e8 2e c2 01 00       	call   11f5ac <printf>
  10337e:	83 c4 10             	add    $0x10,%esp
  103381:	83 ec 0c             	sub    $0xc,%esp
  103384:	68 b4 24 12 00       	push   $0x1224b4
  103389:	e8 1e c2 01 00       	call   11f5ac <printf>
  10338e:	83 c4 10             	add    $0x10,%esp
  103391:	83 ec 0c             	sub    $0xc,%esp
  103394:	68 f0 24 12 00       	push   $0x1224f0
  103399:	e8 0e c2 01 00       	call   11f5ac <printf>
  10339e:	83 c4 10             	add    $0x10,%esp
  1033a1:	83 ec 0c             	sub    $0xc,%esp
  1033a4:	68 1c 25 12 00       	push   $0x12251c
  1033a9:	e8 fe c1 01 00       	call   11f5ac <printf>
  1033ae:	83 c4 10             	add    $0x10,%esp
  1033b1:	83 ec 0c             	sub    $0xc,%esp
  1033b4:	68 4c 25 12 00       	push   $0x12254c
  1033b9:	e8 ee c1 01 00       	call   11f5ac <printf>
  1033be:	83 c4 10             	add    $0x10,%esp
  1033c1:	83 ec 0c             	sub    $0xc,%esp
  1033c4:	68 78 25 12 00       	push   $0x122578
  1033c9:	e8 de c1 01 00       	call   11f5ac <printf>
  1033ce:	83 c4 10             	add    $0x10,%esp
  1033d1:	83 ec 0c             	sub    $0xc,%esp
  1033d4:	68 a0 25 12 00       	push   $0x1225a0
  1033d9:	e8 ce c1 01 00       	call   11f5ac <printf>
  1033de:	83 c4 10             	add    $0x10,%esp
  1033e1:	83 ec 0c             	sub    $0xc,%esp
  1033e4:	68 cc 25 12 00       	push   $0x1225cc
  1033e9:	e8 be c1 01 00       	call   11f5ac <printf>
  1033ee:	83 c4 10             	add    $0x10,%esp
  1033f1:	83 ec 0c             	sub    $0xc,%esp
  1033f4:	68 fc 25 12 00       	push   $0x1225fc
  1033f9:	e8 ae c1 01 00       	call   11f5ac <printf>
  1033fe:	83 c4 10             	add    $0x10,%esp
  103401:	83 ec 0c             	sub    $0xc,%esp
  103404:	68 24 26 12 00       	push   $0x122624
  103409:	e8 9e c1 01 00       	call   11f5ac <printf>
  10340e:	83 c4 10             	add    $0x10,%esp
  103411:	83 ec 0c             	sub    $0xc,%esp
  103414:	68 5c 26 12 00       	push   $0x12265c
  103419:	e8 8e c1 01 00       	call   11f5ac <printf>
  10341e:	83 c4 10             	add    $0x10,%esp
  103421:	83 ec 0c             	sub    $0xc,%esp
  103424:	68 84 26 12 00       	push   $0x122684
  103429:	e8 7e c1 01 00       	call   11f5ac <printf>
  10342e:	83 c4 10             	add    $0x10,%esp
  103431:	90                   	nop
  103432:	c9                   	leave  
  103433:	c3                   	ret    

00103434 <get_cwd>:
  103434:	55                   	push   %ebp
  103435:	89 e5                	mov    %esp,%ebp
  103437:	83 ec 18             	sub    $0x18,%esp
  10343a:	a1 75 ae 12 00       	mov    0x12ae75,%eax
  10343f:	83 f8 01             	cmp    $0x1,%eax
  103442:	74 0c                	je     103450 <get_cwd+0x1c>
  103444:	c7 45 f4 6d 24 12 00 	movl   $0x12246d,-0xc(%ebp)
  10344b:	8b 45 f4             	mov    -0xc(%ebp),%eax
  10344e:	eb 0b                	jmp    10345b <get_cwd+0x27>
  103450:	e8 84 05 01 00       	call   1139d9 <getcwd>
  103455:	89 45 f0             	mov    %eax,-0x10(%ebp)
  103458:	8b 45 f0             	mov    -0x10(%ebp),%eax
  10345b:	c9                   	leave  
  10345c:	c3                   	ret    

0010345d <ls>:
  10345d:	55                   	push   %ebp
  10345e:	89 e5                	mov    %esp,%ebp
  103460:	81 ec 18 c8 00 00    	sub    $0xc818,%esp
  103466:	83 ec 08             	sub    $0x8,%esp
  103469:	68 75 2c 12 00       	push   $0x122c75
  10346e:	68 b8 26 12 00       	push   $0x1226b8
  103473:	e8 bb d7 ff ff       	call   100c33 <printf_com>
  103478:	83 c4 10             	add    $0x10,%esp
  10347b:	a1 75 ae 12 00       	mov    0x12ae75,%eax
  103480:	83 f8 01             	cmp    $0x1,%eax
  103483:	74 12                	je     103497 <ls+0x3a>
  103485:	83 ec 0c             	sub    $0xc,%esp
  103488:	68 d3 26 12 00       	push   $0x1226d3
  10348d:	e8 1a c1 01 00       	call   11f5ac <printf>
  103492:	83 c4 10             	add    $0x10,%esp
  103495:	eb 29                	jmp    1034c0 <ls+0x63>
  103497:	e8 98 ff ff ff       	call   103434 <get_cwd>
  10349c:	89 c2                	mov    %eax,%edx
  10349e:	83 ec 0c             	sub    $0xc,%esp
  1034a1:	8d 45 f0             	lea    -0x10(%ebp),%eax
  1034a4:	50                   	push   %eax
  1034a5:	8d 45 f4             	lea    -0xc(%ebp),%eax
  1034a8:	50                   	push   %eax
  1034a9:	8d 85 f0 9b ff ff    	lea    -0x6410(%ebp),%eax
  1034af:	50                   	push   %eax
  1034b0:	8d 85 f0 37 ff ff    	lea    -0xc810(%ebp),%eax
  1034b6:	50                   	push   %eax
  1034b7:	52                   	push   %edx
  1034b8:	e8 ce 46 01 00       	call   117b8b <fl_listdirectory>
  1034bd:	83 c4 20             	add    $0x20,%esp
  1034c0:	c9                   	leave  
  1034c1:	c3                   	ret    

001034c2 <date>:
  1034c2:	55                   	push   %ebp
  1034c3:	89 e5                	mov    %esp,%ebp
  1034c5:	90                   	nop
  1034c6:	5d                   	pop    %ebp
  1034c7:	c3                   	ret    

001034c8 <draw_kmap>:
  1034c8:	55                   	push   %ebp
  1034c9:	89 e5                	mov    %esp,%ebp
  1034cb:	83 ec 08             	sub    $0x8,%esp
  1034ce:	83 ec 0c             	sub    $0xc,%esp
  1034d1:	68 40 6f 16 00       	push   $0x166f40
  1034d6:	e8 37 34 00 00       	call   106912 <print_kernel_memory_map>
  1034db:	83 c4 10             	add    $0x10,%esp
  1034de:	90                   	nop
  1034df:	c9                   	leave  
  1034e0:	c3                   	ret    

001034e1 <shutdown>:
  1034e1:	55                   	push   %ebp
  1034e2:	89 e5                	mov    %esp,%ebp
  1034e4:	83 ec 08             	sub    $0x8,%esp
  1034e7:	e8 85 11 01 00       	call   114671 <fs_shutdown>
  1034ec:	e8 46 24 00 00       	call   105937 <kheap_shutdown>
  1034f1:	e8 a2 d5 00 00       	call   110a98 <acpiPowerOff>
  1034f6:	90                   	nop
  1034f7:	c9                   	leave  
  1034f8:	c3                   	ret    

001034f9 <key_map>:
  1034f9:	55                   	push   %ebp
  1034fa:	89 e5                	mov    %esp,%ebp
  1034fc:	83 ec 08             	sub    $0x8,%esp
  1034ff:	83 ec 0c             	sub    $0xc,%esp
  103502:	68 e0 26 12 00       	push   $0x1226e0
  103507:	e8 a0 c0 01 00       	call   11f5ac <printf>
  10350c:	83 c4 10             	add    $0x10,%esp
  10350f:	83 ec 0c             	sub    $0xc,%esp
  103512:	68 e9 26 12 00       	push   $0x1226e9
  103517:	e8 90 c0 01 00       	call   11f5ac <printf>
  10351c:	83 c4 10             	add    $0x10,%esp
  10351f:	83 ec 0c             	sub    $0xc,%esp
  103522:	68 02 27 12 00       	push   $0x122702
  103527:	e8 80 c0 01 00       	call   11f5ac <printf>
  10352c:	83 c4 10             	add    $0x10,%esp
  10352f:	83 ec 0c             	sub    $0xc,%esp
  103532:	68 1b 27 12 00       	push   $0x12271b
  103537:	e8 70 c0 01 00       	call   11f5ac <printf>
  10353c:	83 c4 10             	add    $0x10,%esp
  10353f:	83 ec 0c             	sub    $0xc,%esp
  103542:	68 39 27 12 00       	push   $0x122739
  103547:	e8 60 c0 01 00       	call   11f5ac <printf>
  10354c:	83 c4 10             	add    $0x10,%esp
  10354f:	83 ec 0c             	sub    $0xc,%esp
  103552:	68 53 27 12 00       	push   $0x122753
  103557:	e8 50 c0 01 00       	call   11f5ac <printf>
  10355c:	83 c4 10             	add    $0x10,%esp
  10355f:	83 ec 0c             	sub    $0xc,%esp
  103562:	68 70 27 12 00       	push   $0x122770
  103567:	e8 40 c0 01 00       	call   11f5ac <printf>
  10356c:	83 c4 10             	add    $0x10,%esp
  10356f:	90                   	nop
  103570:	c9                   	leave  
  103571:	c3                   	ret    

00103572 <print_iris>:
  103572:	55                   	push   %ebp
  103573:	89 e5                	mov    %esp,%ebp
  103575:	83 ec 08             	sub    $0x8,%esp
  103578:	83 ec 0c             	sub    $0xc,%esp
  10357b:	68 8f 27 12 00       	push   $0x12278f
  103580:	e8 27 c0 01 00       	call   11f5ac <printf>
  103585:	83 c4 10             	add    $0x10,%esp
  103588:	83 ec 0c             	sub    $0xc,%esp
  10358b:	68 97 27 12 00       	push   $0x122797
  103590:	e8 17 c0 01 00       	call   11f5ac <printf>
  103595:	83 c4 10             	add    $0x10,%esp
  103598:	83 ec 0c             	sub    $0xc,%esp
  10359b:	68 99 27 12 00       	push   $0x122799
  1035a0:	e8 07 c0 01 00       	call   11f5ac <printf>
  1035a5:	83 c4 10             	add    $0x10,%esp
  1035a8:	83 ec 0c             	sub    $0xc,%esp
  1035ab:	68 a1 27 12 00       	push   $0x1227a1
  1035b0:	e8 f7 bf 01 00       	call   11f5ac <printf>
  1035b5:	83 c4 10             	add    $0x10,%esp
  1035b8:	83 ec 0c             	sub    $0xc,%esp
  1035bb:	68 a3 27 12 00       	push   $0x1227a3
  1035c0:	e8 e7 bf 01 00       	call   11f5ac <printf>
  1035c5:	83 c4 10             	add    $0x10,%esp
  1035c8:	83 ec 0c             	sub    $0xc,%esp
  1035cb:	68 ab 27 12 00       	push   $0x1227ab
  1035d0:	e8 d7 bf 01 00       	call   11f5ac <printf>
  1035d5:	83 c4 10             	add    $0x10,%esp
  1035d8:	83 ec 0c             	sub    $0xc,%esp
  1035db:	68 ad 27 12 00       	push   $0x1227ad
  1035e0:	e8 c7 bf 01 00       	call   11f5ac <printf>
  1035e5:	83 c4 10             	add    $0x10,%esp
  1035e8:	83 ec 0c             	sub    $0xc,%esp
  1035eb:	68 b5 27 12 00       	push   $0x1227b5
  1035f0:	e8 b7 bf 01 00       	call   11f5ac <printf>
  1035f5:	83 c4 10             	add    $0x10,%esp
  1035f8:	83 ec 0c             	sub    $0xc,%esp
  1035fb:	68 b7 27 12 00       	push   $0x1227b7
  103600:	e8 a7 bf 01 00       	call   11f5ac <printf>
  103605:	83 c4 10             	add    $0x10,%esp
  103608:	90                   	nop
  103609:	c9                   	leave  
  10360a:	c3                   	ret    

0010360b <get_primary_dev_num>:
  10360b:	55                   	push   %ebp
  10360c:	89 e5                	mov    %esp,%ebp
  10360e:	83 ec 18             	sub    $0x18,%esp
  103611:	c7 45 f4 00 00 00 00 	movl   $0x0,-0xc(%ebp)
  103618:	83 ec 04             	sub    $0x4,%esp
  10361b:	8d 45 f4             	lea    -0xc(%ebp),%eax
  10361e:	50                   	push   %eax
  10361f:	68 bc 27 12 00       	push   $0x1227bc
  103624:	ff 75 08             	push   0x8(%ebp)
  103627:	e8 5e fa 00 00       	call   11308a <sscanf_>
  10362c:	83 c4 10             	add    $0x10,%esp
  10362f:	83 f8 01             	cmp    $0x1,%eax
  103632:	75 05                	jne    103639 <get_primary_dev_num+0x2e>
  103634:	8b 45 f4             	mov    -0xc(%ebp),%eax
  103637:	eb 05                	jmp    10363e <get_primary_dev_num+0x33>
  103639:	b8 ff ff ff ff       	mov    $0xffffffff,%eax
  10363e:	c9                   	leave  
  10363f:	c3                   	ret    

00103640 <get_path_without_dev>:
  103640:	55                   	push   %ebp
  103641:	89 e5                	mov    %esp,%ebp
  103643:	83 ec 18             	sub    $0x18,%esp
  103646:	83 ec 08             	sub    $0x8,%esp
  103649:	6a 2f                	push   $0x2f
  10364b:	ff 75 08             	push   0x8(%ebp)
  10364e:	e8 9d d5 01 00       	call   120bf0 <strchr>
  103653:	83 c4 10             	add    $0x10,%esp
  103656:	89 45 f4             	mov    %eax,-0xc(%ebp)
  103659:	83 7d f4 00          	cmpl   $0x0,-0xc(%ebp)
  10365d:	74 05                	je     103664 <get_path_without_dev+0x24>
  10365f:	8b 45 f4             	mov    -0xc(%ebp),%eax
  103662:	eb 03                	jmp    103667 <get_path_without_dev+0x27>
  103664:	8b 45 08             	mov    0x8(%ebp),%eax
  103667:	c9                   	leave  
  103668:	c3                   	ret    

00103669 <cmd>:
  103669:	55                   	push   %ebp
  10366a:	89 e5                	mov    %esp,%ebp
  10366c:	57                   	push   %edi
  10366d:	56                   	push   %esi
  10366e:	53                   	push   %ebx
  10366f:	81 ec 8c 28 00 00    	sub    $0x288c,%esp
  103675:	68 78 2c 12 00       	push   $0x122c78
  10367a:	68 1c 01 00 00       	push   $0x11c
  10367f:	68 34 24 12 00       	push   $0x122434
  103684:	68 49 24 12 00       	push   $0x122449
  103689:	e8 a5 d5 ff ff       	call   100c33 <printf_com>
  10368e:	83 c4 10             	add    $0x10,%esp
  103691:	83 ec 08             	sub    $0x8,%esp
  103694:	8d 45 ac             	lea    -0x54(%ebp),%eax
  103697:	50                   	push   %eax
  103698:	ff 75 08             	push   0x8(%ebp)
  10369b:	e8 01 f8 ff ff       	call   102ea1 <parse_command>
  1036a0:	83 c4 10             	add    $0x10,%esp
  1036a3:	89 45 cc             	mov    %eax,-0x34(%ebp)
  1036a6:	68 78 2c 12 00       	push   $0x122c78
  1036ab:	68 1f 01 00 00       	push   $0x11f
  1036b0:	68 34 24 12 00       	push   $0x122434
  1036b5:	68 49 24 12 00       	push   $0x122449
  1036ba:	e8 74 d5 ff ff       	call   100c33 <printf_com>
  1036bf:	83 c4 10             	add    $0x10,%esp
  1036c2:	83 7d cc 00          	cmpl   $0x0,-0x34(%ebp)
  1036c6:	75 36                	jne    1036fe <cmd+0x95>
  1036c8:	83 ec 0c             	sub    $0xc,%esp
  1036cb:	68 c0 27 12 00       	push   $0x1227c0
  1036d0:	e8 d7 be 01 00       	call   11f5ac <printf>
  1036d5:	83 c4 10             	add    $0x10,%esp
  1036d8:	68 78 2c 12 00       	push   $0x122c78
  1036dd:	68 23 01 00 00       	push   $0x123
  1036e2:	68 34 24 12 00       	push   $0x122434
  1036e7:	68 49 24 12 00       	push   $0x122449
  1036ec:	e8 42 d5 ff ff       	call   100c33 <printf_com>
  1036f1:	83 c4 10             	add    $0x10,%esp
  1036f4:	b8 01 00 00 00       	mov    $0x1,%eax
  1036f9:	e9 e9 0a 00 00       	jmp    1041e7 <cmd+0xb7e>
  1036fe:	c7 45 e4 00 00 00 00 	movl   $0x0,-0x1c(%ebp)
  103705:	eb 26                	jmp    10372d <cmd+0xc4>
  103707:	8b 45 e4             	mov    -0x1c(%ebp),%eax
  10370a:	8d 14 85 00 00 00 00 	lea    0x0(,%eax,4),%edx
  103711:	8b 45 cc             	mov    -0x34(%ebp),%eax
  103714:	01 d0                	add    %edx,%eax
  103716:	8b 00                	mov    (%eax),%eax
  103718:	83 ec 08             	sub    $0x8,%esp
  10371b:	50                   	push   %eax
  10371c:	68 e2 27 12 00       	push   $0x1227e2
  103721:	e8 05 41 00 00       	call   10782b <printf_debug>
  103726:	83 c4 10             	add    $0x10,%esp
  103729:	83 45 e4 01          	addl   $0x1,-0x1c(%ebp)
  10372d:	8b 45 ac             	mov    -0x54(%ebp),%eax
  103730:	39 45 e4             	cmp    %eax,-0x1c(%ebp)
  103733:	72 d2                	jb     103707 <cmd+0x9e>
  103735:	68 78 2c 12 00       	push   $0x122c78
  10373a:	68 2c 01 00 00       	push   $0x12c
  10373f:	68 34 24 12 00       	push   $0x122434
  103744:	68 49 24 12 00       	push   $0x122449
  103749:	e8 e5 d4 ff ff       	call   100c33 <printf_com>
  10374e:	83 c4 10             	add    $0x10,%esp
  103751:	8b 45 cc             	mov    -0x34(%ebp),%eax
  103754:	8b 00                	mov    (%eax),%eax
  103756:	83 ec 08             	sub    $0x8,%esp
  103759:	68 e8 27 12 00       	push   $0x1227e8
  10375e:	50                   	push   %eax
  10375f:	e8 c4 d7 01 00       	call   120f28 <strcmp>
  103764:	83 c4 10             	add    $0x10,%esp
  103767:	85 c0                	test   %eax,%eax
  103769:	0f 85 b4 00 00 00    	jne    103823 <cmd+0x1ba>
  10376f:	8b 45 ac             	mov    -0x54(%ebp),%eax
  103772:	83 f8 01             	cmp    $0x1,%eax
  103775:	0f 8e 8d 00 00 00    	jle    103808 <cmd+0x19f>
  10377b:	8b 45 cc             	mov    -0x34(%ebp),%eax
  10377e:	8b 40 04             	mov    0x4(%eax),%eax
  103781:	89 45 e0             	mov    %eax,-0x20(%ebp)
  103784:	8b 45 e0             	mov    -0x20(%ebp),%eax
  103787:	83 c0 01             	add    $0x1,%eax
  10378a:	0f b6 00             	movzbl (%eax),%eax
  10378d:	3c 3a                	cmp    $0x3a,%al
  10378f:	75 0d                	jne    10379e <cmd+0x135>
  103791:	8b 45 e0             	mov    -0x20(%ebp),%eax
  103794:	83 c0 02             	add    $0x2,%eax
  103797:	0f b6 00             	movzbl (%eax),%eax
  10379a:	3c 2f                	cmp    $0x2f,%al
  10379c:	74 21                	je     1037bf <cmd+0x156>
  10379e:	8b 45 e0             	mov    -0x20(%ebp),%eax
  1037a1:	83 c0 01             	add    $0x1,%eax
  1037a4:	0f b6 00             	movzbl (%eax),%eax
  1037a7:	3c 3a                	cmp    $0x3a,%al
  1037a9:	75 4a                	jne    1037f5 <cmd+0x18c>
  1037ab:	83 ec 08             	sub    $0x8,%esp
  1037ae:	6a 2f                	push   $0x2f
  1037b0:	ff 75 e0             	push   -0x20(%ebp)
  1037b3:	e8 38 d4 01 00       	call   120bf0 <strchr>
  1037b8:	83 c4 10             	add    $0x10,%esp
  1037bb:	85 c0                	test   %eax,%eax
  1037bd:	74 36                	je     1037f5 <cmd+0x18c>
  1037bf:	83 ec 0c             	sub    $0xc,%esp
  1037c2:	ff 75 e0             	push   -0x20(%ebp)
  1037c5:	e8 41 fe ff ff       	call   10360b <get_primary_dev_num>
  1037ca:	83 c4 10             	add    $0x10,%esp
  1037cd:	89 45 c8             	mov    %eax,-0x38(%ebp)
  1037d0:	83 7d c8 ff          	cmpl   $0xffffffff,-0x38(%ebp)
  1037d4:	74 0e                	je     1037e4 <cmd+0x17b>
  1037d6:	83 ec 0c             	sub    $0xc,%esp
  1037d9:	ff 75 c8             	push   -0x38(%ebp)
  1037dc:	e8 46 81 00 00       	call   10b927 <set_primary_dev>
  1037e1:	83 c4 10             	add    $0x10,%esp
  1037e4:	83 ec 0c             	sub    $0xc,%esp
  1037e7:	ff 75 e0             	push   -0x20(%ebp)
  1037ea:	e8 51 fe ff ff       	call   103640 <get_path_without_dev>
  1037ef:	83 c4 10             	add    $0x10,%esp
  1037f2:	89 45 e0             	mov    %eax,-0x20(%ebp)
  1037f5:	83 ec 0c             	sub    $0xc,%esp
  1037f8:	ff 75 e0             	push   -0x20(%ebp)
  1037fb:	e8 62 fa ff ff       	call   103262 <set_cwd>
  103800:	83 c4 10             	add    $0x10,%esp
  103803:	e9 9e 09 00 00       	jmp    1041a6 <cmd+0xb3d>
  103808:	e8 cc 01 01 00       	call   1139d9 <getcwd>
  10380d:	83 ec 08             	sub    $0x8,%esp
  103810:	50                   	push   %eax
  103811:	68 eb 27 12 00       	push   $0x1227eb
  103816:	e8 91 bd 01 00       	call   11f5ac <printf>
  10381b:	83 c4 10             	add    $0x10,%esp
  10381e:	e9 83 09 00 00       	jmp    1041a6 <cmd+0xb3d>
  103823:	8b 45 cc             	mov    -0x34(%ebp),%eax
  103826:	8b 00                	mov    (%eax),%eax
  103828:	83 ec 08             	sub    $0x8,%esp
  10382b:	68 ef 27 12 00       	push   $0x1227ef
  103830:	50                   	push   %eax
  103831:	e8 f2 d6 01 00       	call   120f28 <strcmp>
  103836:	83 c4 10             	add    $0x10,%esp
  103839:	85 c0                	test   %eax,%eax
  10383b:	75 68                	jne    1038a5 <cmd+0x23c>
  10383d:	8b 45 ac             	mov    -0x54(%ebp),%eax
  103840:	83 f8 01             	cmp    $0x1,%eax
  103843:	7f 25                	jg     10386a <cmd+0x201>
  103845:	83 ec 0c             	sub    $0xc,%esp
  103848:	68 f4 27 12 00       	push   $0x1227f4
  10384d:	e8 5a bd 01 00       	call   11f5ac <printf>
  103852:	83 c4 10             	add    $0x10,%esp
  103855:	83 ec 0c             	sub    $0xc,%esp
  103858:	68 0c 28 12 00       	push   $0x12280c
  10385d:	e8 4a bd 01 00       	call   11f5ac <printf>
  103862:	83 c4 10             	add    $0x10,%esp
  103865:	e9 3c 09 00 00       	jmp    1041a6 <cmd+0xb3d>
  10386a:	8b 45 cc             	mov    -0x34(%ebp),%eax
  10386d:	83 c0 04             	add    $0x4,%eax
  103870:	8b 00                	mov    (%eax),%eax
  103872:	83 ec 08             	sub    $0x8,%esp
  103875:	68 3b 28 12 00       	push   $0x12283b
  10387a:	50                   	push   %eax
  10387b:	e8 a8 d6 01 00       	call   120f28 <strcmp>
  103880:	83 c4 10             	add    $0x10,%esp
  103883:	85 c0                	test   %eax,%eax
  103885:	0f 85 1b 09 00 00    	jne    1041a6 <cmd+0xb3d>
  10388b:	83 ec 0c             	sub    $0xc,%esp
  10388e:	68 3e 28 12 00       	push   $0x12283e
  103893:	e8 14 bd 01 00       	call   11f5ac <printf>
  103898:	83 c4 10             	add    $0x10,%esp
  10389b:	e8 0e 7e 00 00       	call   10b6ae <list_devices>
  1038a0:	e9 01 09 00 00       	jmp    1041a6 <cmd+0xb3d>
  1038a5:	8b 45 cc             	mov    -0x34(%ebp),%eax
  1038a8:	8b 00                	mov    (%eax),%eax
  1038aa:	83 ec 08             	sub    $0x8,%esp
  1038ad:	68 40 28 12 00       	push   $0x122840
  1038b2:	50                   	push   %eax
  1038b3:	e8 70 d6 01 00       	call   120f28 <strcmp>
  1038b8:	83 c4 10             	add    $0x10,%esp
  1038bb:	85 c0                	test   %eax,%eax
  1038bd:	75 6c                	jne    10392b <cmd+0x2c2>
  1038bf:	8b 0d a0 80 12 00    	mov    0x1280a0,%ecx
  1038c5:	8b 1d a4 80 12 00    	mov    0x1280a4,%ebx
  1038cb:	a1 08 80 12 00       	mov    0x128008,%eax
  1038d0:	8b 15 0c 80 12 00    	mov    0x12800c,%edx
  1038d6:	89 df                	mov    %ebx,%edi
  1038d8:	0f af f8             	imul   %eax,%edi
  1038db:	89 d6                	mov    %edx,%esi
  1038dd:	0f af f1             	imul   %ecx,%esi
  1038e0:	01 fe                	add    %edi,%esi
  1038e2:	f7 e1                	mul    %ecx
  1038e4:	8d 0c 16             	lea    (%esi,%edx,1),%ecx
  1038e7:	89 ca                	mov    %ecx,%edx
  1038e9:	83 ec 08             	sub    $0x8,%esp
  1038ec:	52                   	push   %edx
  1038ed:	50                   	push   %eax
  1038ee:	e8 68 c7 ff ff       	call   10005b <srand>
  1038f3:	83 c4 10             	add    $0x10,%esp
  1038f6:	e8 07 c8 ff ff       	call   100102 <rand>
  1038fb:	99                   	cltd   
  1038fc:	a3 a0 80 12 00       	mov    %eax,0x1280a0
  103901:	89 15 a4 80 12 00    	mov    %edx,0x1280a4
  103907:	a1 a0 80 12 00       	mov    0x1280a0,%eax
  10390c:	8b 15 a4 80 12 00    	mov    0x1280a4,%edx
  103912:	52                   	push   %edx
  103913:	50                   	push   %eax
  103914:	68 78 2c 12 00       	push   $0x122c78
  103919:	68 45 28 12 00       	push   $0x122845
  10391e:	e8 10 d3 ff ff       	call   100c33 <printf_com>
  103923:	83 c4 10             	add    $0x10,%esp
  103926:	e9 7b 08 00 00       	jmp    1041a6 <cmd+0xb3d>
  10392b:	8b 45 cc             	mov    -0x34(%ebp),%eax
  10392e:	8b 00                	mov    (%eax),%eax
  103930:	83 ec 08             	sub    $0x8,%esp
  103933:	68 4e 28 12 00       	push   $0x12284e
  103938:	50                   	push   %eax
  103939:	e8 ea d5 01 00       	call   120f28 <strcmp>
  10393e:	83 c4 10             	add    $0x10,%esp
  103941:	85 c0                	test   %eax,%eax
  103943:	0f 85 aa 00 00 00    	jne    1039f3 <cmd+0x38a>
  103949:	8b 45 ac             	mov    -0x54(%ebp),%eax
  10394c:	83 f8 01             	cmp    $0x1,%eax
  10394f:	7f 15                	jg     103966 <cmd+0x2fd>
  103951:	83 ec 0c             	sub    $0xc,%esp
  103954:	68 58 28 12 00       	push   $0x122858
  103959:	e8 4e bc 01 00       	call   11f5ac <printf>
  10395e:	83 c4 10             	add    $0x10,%esp
  103961:	e9 40 08 00 00       	jmp    1041a6 <cmd+0xb3d>
  103966:	8b 45 cc             	mov    -0x34(%ebp),%eax
  103969:	83 c0 04             	add    $0x4,%eax
  10396c:	8b 00                	mov    (%eax),%eax
  10396e:	83 ec 08             	sub    $0x8,%esp
  103971:	68 c9 28 12 00       	push   $0x1228c9
  103976:	50                   	push   %eax
  103977:	e8 ac d5 01 00       	call   120f28 <strcmp>
  10397c:	83 c4 10             	add    $0x10,%esp
  10397f:	85 c0                	test   %eax,%eax
  103981:	0f 85 1f 08 00 00    	jne    1041a6 <cmd+0xb3d>
  103987:	83 ec 0c             	sub    $0xc,%esp
  10398a:	68 cf 28 12 00       	push   $0x1228cf
  10398f:	e8 18 bc 01 00       	call   11f5ac <printf>
  103994:	83 c4 10             	add    $0x10,%esp
  103997:	8b 45 ac             	mov    -0x54(%ebp),%eax
  10399a:	83 f8 03             	cmp    $0x3,%eax
  10399d:	75 19                	jne    1039b8 <cmd+0x34f>
  10399f:	8b 45 cc             	mov    -0x34(%ebp),%eax
  1039a2:	83 c0 08             	add    $0x8,%eax
  1039a5:	8b 00                	mov    (%eax),%eax
  1039a7:	83 ec 0c             	sub    $0xc,%esp
  1039aa:	50                   	push   %eax
  1039ab:	e8 a4 d6 01 00       	call   121054 <atoi>
  1039b0:	83 c4 10             	add    $0x10,%esp
  1039b3:	89 45 dc             	mov    %eax,-0x24(%ebp)
  1039b6:	eb 1b                	jmp    1039d3 <cmd+0x36a>
  1039b8:	e8 9b 80 00 00       	call   10ba58 <get_current_drive_sector_count>
